; ModuleID = '/users/florcath/vivado_hls/project_tracking_on_soc/solution1/.autopilot/db/a.o.3.bc'
target datalayout = "e-p:64:64:64-i1:8:8-i8:8:8-i16:16:16-i32:32:32-i64:64:64-f32:32:32-f64:64:64-v64:64:64-v128:128:128-a0:0:64-s0:64:64-f80:128:128-n8:16:32:64-S128"
target triple = "x86_64-unknown-linux-gnu"

@main_str = internal unnamed_addr constant [5 x i8] c"main\00" ; [#uses=1 type=[5 x i8]*]
@llvm_global_ctors_1 = appending global [1 x void ()*] [void ()* @_GLOBAL__I_a] ; [#uses=0 type=[1 x void ()*]*]
@llvm_global_ctors_0 = appending global [1 x i32] [i32 65535] ; [#uses=0 type=[1 x i32]*]
@imgColor_OC_rows_OC_1 = internal unnamed_addr constant [18 x i8] c"imgColor.rows.V_c\00" ; [#uses=1 type=[18 x i8]*]
@imgColor_OC_rows_OC_s = internal unnamed_addr constant [20 x i8] c"imgColor.rows.V_c40\00" ; [#uses=1 type=[20 x i8]*]
@imgColor_OC_data_str_2 = internal unnamed_addr constant [26 x i8] c"imgColor.data_stream[0].V\00" ; [#uses=1 type=[26 x i8]*]
@imgColor_OC_data_str_1 = internal unnamed_addr constant [26 x i8] c"imgColor.data_stream[1].V\00" ; [#uses=1 type=[26 x i8]*]
@imgColor_OC_data_str = internal unnamed_addr constant [26 x i8] c"imgColor.data_stream[2].V\00" ; [#uses=1 type=[26 x i8]*]
@imgColor_OC_cols_OC_1 = internal unnamed_addr constant [18 x i8] c"imgColor.cols.V_c\00" ; [#uses=1 type=[18 x i8]*]
@imgColor_OC_cols_OC_s = internal unnamed_addr constant [20 x i8] c"imgColor.cols.V_c41\00" ; [#uses=1 type=[20 x i8]*]
@ap_fifo_str = internal unnamed_addr constant [8 x i8] c"ap_fifo\00" ; [#uses=21 type=[8 x i8]*]
@p_str9 = private unnamed_addr constant [5 x i8] c"0x1C\00", align 1 ; [#uses=1 type=[5 x i8]*]
@p_str8 = private unnamed_addr constant [5 x i8] c"0x14\00", align 1 ; [#uses=1 type=[5 x i8]*]
@p_str716 = private unnamed_addr constant [12 x i8] c"hls_label_0\00", align 1 ; [#uses=2 type=[12 x i8]*]
@p_str7 = private unnamed_addr constant [12 x i8] c"CONTROL_BUS\00", align 1 ; [#uses=3 type=[12 x i8]*]
@p_str6 = private unnamed_addr constant [10 x i8] c"s_axilite\00", align 1 ; [#uses=3 type=[10 x i8]*]
@p_str4 = private unnamed_addr constant [1 x i8] zeroinitializer, align 1 ; [#uses=32 type=[1 x i8]*]
@p_str312 = private unnamed_addr constant [12 x i8] c"hls_label_3\00", align 1 ; [#uses=2 type=[12 x i8]*]
@p_str23 = private unnamed_addr constant [12 x i8] c"hls_label_0\00", align 1 ; [#uses=2 type=[12 x i8]*]
@p_str22 = private unnamed_addr constant [18 x i8] c"loop_wait_for_eol\00", align 1 ; [#uses=3 type=[18 x i8]*]
@p_str20 = private unnamed_addr constant [11 x i8] c"loop_width\00", align 1 ; [#uses=3 type=[11 x i8]*]
@p_str19 = private unnamed_addr constant [12 x i8] c"loop_height\00", align 1 ; [#uses=3 type=[12 x i8]*]
@p_str18 = private unnamed_addr constant [20 x i8] c"loop_wait_for_start\00", align 1 ; [#uses=3 type=[20 x i8]*]
@p_str11 = private unnamed_addr constant [1 x i8] zeroinitializer, align 1 ; [#uses=2 type=[1 x i8]*]
@p_str10 = private unnamed_addr constant [10 x i8] c"ap_stable\00", align 1 ; [#uses=2 type=[10 x i8]*]
@p_str = internal unnamed_addr constant [1 x i8] zeroinitializer ; [#uses=140 type=[1 x i8]*]

; [#uses=0]
define i32 @main() nounwind uwtable {
codeRepl:
  %imgColor_cols_V_c41 = alloca i11, align 2      ; [#uses=5 type=i11*]
  %imgColor_rows_V_c40 = alloca i12, align 2      ; [#uses=5 type=i12*]
  %imgColor_cols_V_c = alloca i11, align 2        ; [#uses=5 type=i11*]
  %imgColor_rows_V_c = alloca i12, align 2        ; [#uses=5 type=i12*]
  call void (...)* @_ssdm_op_SpecDataflowPipeline(i32 -1, [1 x i8]* @p_str4) nounwind, !dbg !112 ; [debug line = 29:1]
  call void (...)* @_ssdm_op_SpecBitsMap(i32 0) nounwind, !map !121
  call void (...)* @_ssdm_op_SpecTopModule([5 x i8]* @main_str) nounwind
  %video_in_V_data_V = alloca i24, align 4        ; [#uses=1 type=i24*]
  %video_in_V_keep_V = alloca i3, align 1         ; [#uses=1 type=i3*]
  %video_in_V_strb_V = alloca i3, align 1         ; [#uses=1 type=i3*]
  %video_in_V_user_V = alloca i1, align 1         ; [#uses=1 type=i1*]
  %video_in_V_last_V = alloca i1, align 1         ; [#uses=1 type=i1*]
  %video_in_V_id_V = alloca i1, align 1           ; [#uses=1 type=i1*]
  %video_in_V_dest_V = alloca i1, align 1         ; [#uses=1 type=i1*]
  %imgColor_data_stream = alloca i8, align 1      ; [#uses=5 type=i8*]
  %empty = call i32 (...)* @_ssdm_op_SpecChannel([26 x i8]* @imgColor_OC_data_str_2, i32 1, [1 x i8]* @p_str, [1 x i8]* @p_str, i32 1, i32 1, i8* %imgColor_data_stream, i8* %imgColor_data_stream) nounwind ; [#uses=0 type=i32]
  call void (...)* @_ssdm_op_SpecInterface(i8* %imgColor_data_stream, [8 x i8]* @ap_fifo_str, i32 0, i32 0, [1 x i8]* @p_str, i32 0, i32 0, [1 x i8]* @p_str, [1 x i8]* @p_str, [1 x i8]* @p_str, i32 2, i32 2, i32 16, i32 16, [1 x i8]* @p_str, [1 x i8]* @p_str)
  %imgColor_data_stream_1 = alloca i8, align 1    ; [#uses=5 type=i8*]
  %empty_10 = call i32 (...)* @_ssdm_op_SpecChannel([26 x i8]* @imgColor_OC_data_str_1, i32 1, [1 x i8]* @p_str, [1 x i8]* @p_str, i32 1, i32 1, i8* %imgColor_data_stream_1, i8* %imgColor_data_stream_1) nounwind ; [#uses=0 type=i32]
  call void (...)* @_ssdm_op_SpecInterface(i8* %imgColor_data_stream_1, [8 x i8]* @ap_fifo_str, i32 0, i32 0, [1 x i8]* @p_str, i32 0, i32 0, [1 x i8]* @p_str, [1 x i8]* @p_str, [1 x i8]* @p_str, i32 2, i32 2, i32 16, i32 16, [1 x i8]* @p_str, [1 x i8]* @p_str)
  %imgColor_data_stream_2 = alloca i8, align 1    ; [#uses=5 type=i8*]
  %empty_11 = call i32 (...)* @_ssdm_op_SpecChannel([26 x i8]* @imgColor_OC_data_str, i32 1, [1 x i8]* @p_str, [1 x i8]* @p_str, i32 1, i32 1, i8* %imgColor_data_stream_2, i8* %imgColor_data_stream_2) nounwind ; [#uses=0 type=i32]
  call void (...)* @_ssdm_op_SpecInterface(i8* %imgColor_data_stream_2, [8 x i8]* @ap_fifo_str, i32 0, i32 0, [1 x i8]* @p_str, i32 0, i32 0, [1 x i8]* @p_str, [1 x i8]* @p_str, [1 x i8]* @p_str, i32 2, i32 2, i32 16, i32 16, [1 x i8]* @p_str, [1 x i8]* @p_str)
  %imgNdg_data_stream_0 = alloca i8, align 1      ; [#uses=1 type=i8*]
  call void (...)* @_ssdm_op_SpecInterface(i32 0, [10 x i8]* @p_str6, i32 0, i32 0, [1 x i8]* @p_str4, i32 0, i32 0, [12 x i8]* @p_str7, [1 x i8]* @p_str4, [1 x i8]* @p_str4, i32 0, i32 0, i32 0, i32 0, [1 x i8]* @p_str4, [1 x i8]* @p_str4) nounwind, !dbg !127 ; [debug line = 17:1]
  call void (...)* @_ssdm_op_SpecInterface(i32 300, [10 x i8]* @p_str6, i32 0, i32 0, [1 x i8]* @p_str4, i32 0, i32 0, [12 x i8]* @p_str7, [5 x i8]* @p_str8, [1 x i8]* @p_str4, i32 0, i32 0, i32 0, i32 0, [1 x i8]* @p_str4, [1 x i8]* @p_str4) nounwind, !dbg !128 ; [debug line = 19:1]
  call void (...)* @_ssdm_op_SpecInterface(i32 300, [10 x i8]* @p_str6, i32 0, i32 0, [1 x i8]* @p_str4, i32 0, i32 0, [12 x i8]* @p_str7, [5 x i8]* @p_str9, [1 x i8]* @p_str4, i32 0, i32 0, i32 0, i32 0, [1 x i8]* @p_str4, [1 x i8]* @p_str4) nounwind, !dbg !129 ; [debug line = 20:1]
  call void (...)* @_ssdm_op_SpecInterface(i32 300, [10 x i8]* @p_str10, i32 0, i32 0, [1 x i8]* @p_str4, i32 0, i32 0, [1 x i8]* @p_str4, [1 x i8]* @p_str4, [1 x i8]* @p_str4, i32 0, i32 0, i32 0, i32 0, [1 x i8]* @p_str4, [1 x i8]* @p_str4) nounwind, !dbg !130 ; [debug line = 21:1]
  call void (...)* @_ssdm_op_SpecInterface(i32 300, [10 x i8]* @p_str10, i32 0, i32 0, [1 x i8]* @p_str4, i32 0, i32 0, [1 x i8]* @p_str4, [1 x i8]* @p_str4, [1 x i8]* @p_str4, i32 0, i32 0, i32 0, i32 0, [1 x i8]* @p_str4, [1 x i8]* @p_str4) nounwind, !dbg !131 ; [debug line = 22:1]
  call void @llvm.dbg.declare(metadata !{i24* %video_in_V_data_V}, metadata !132), !dbg !11945 ; [debug line = 7:13] [debug variable = video_in.V.data.V]
  call void @llvm.dbg.declare(metadata !{i3* %video_in_V_keep_V}, metadata !11946), !dbg !11945 ; [debug line = 7:13] [debug variable = video_in.V.keep.V]
  call void @llvm.dbg.declare(metadata !{i3* %video_in_V_strb_V}, metadata !11957), !dbg !11945 ; [debug line = 7:13] [debug variable = video_in.V.strb.V]
  call void @llvm.dbg.declare(metadata !{i1* %video_in_V_user_V}, metadata !11958), !dbg !11945 ; [debug line = 7:13] [debug variable = video_in.V.user.V]
  call void @llvm.dbg.declare(metadata !{i1* %video_in_V_last_V}, metadata !11969), !dbg !11945 ; [debug line = 7:13] [debug variable = video_in.V.last.V]
  call void @llvm.dbg.declare(metadata !{i1* %video_in_V_id_V}, metadata !11970), !dbg !11945 ; [debug line = 7:13] [debug variable = video_in.V.id.V]
  call void @llvm.dbg.declare(metadata !{i1* %video_in_V_dest_V}, metadata !11971), !dbg !11945 ; [debug line = 7:13] [debug variable = video_in.V.dest.V]
  call void @llvm.dbg.declare(metadata !{i8* %imgColor_data_stream}, metadata !11972), !dbg !12264 ; [debug line = 30:11] [debug variable = imgColor.data_stream[0].V]
  call void @llvm.dbg.declare(metadata !{i8* %imgColor_data_stream_1}, metadata !12265), !dbg !12264 ; [debug line = 30:11] [debug variable = imgColor.data_stream[1].V]
  call void @llvm.dbg.declare(metadata !{i8* %imgColor_data_stream_2}, metadata !12266), !dbg !12264 ; [debug line = 30:11] [debug variable = imgColor.data_stream[2].V]
  %empty_12 = call i32 (...)* @_ssdm_op_SpecChannel([18 x i8]* @imgColor_OC_rows_OC_1, i32 1, [1 x i8]* @p_str, [1 x i8]* @p_str, i32 1, i32 0, i12* %imgColor_rows_V_c, i12* %imgColor_rows_V_c) nounwind ; [#uses=0 type=i32]
  call void (...)* @_ssdm_op_SpecInterface(i12* %imgColor_rows_V_c, [8 x i8]* @ap_fifo_str, i32 0, i32 0, [1 x i8]* @p_str, i32 0, i32 0, [1 x i8]* @p_str, [1 x i8]* @p_str, [1 x i8]* @p_str, i32 2, i32 2, i32 16, i32 16, [1 x i8]* @p_str, [1 x i8]* @p_str)
  %empty_13 = call i32 (...)* @_ssdm_op_SpecChannel([18 x i8]* @imgColor_OC_cols_OC_1, i32 1, [1 x i8]* @p_str, [1 x i8]* @p_str, i32 1, i32 0, i11* %imgColor_cols_V_c, i11* %imgColor_cols_V_c) nounwind ; [#uses=0 type=i32]
  call void (...)* @_ssdm_op_SpecInterface(i11* %imgColor_cols_V_c, [8 x i8]* @ap_fifo_str, i32 0, i32 0, [1 x i8]* @p_str, i32 0, i32 0, [1 x i8]* @p_str, [1 x i8]* @p_str, [1 x i8]* @p_str, i32 2, i32 2, i32 16, i32 16, [1 x i8]* @p_str, [1 x i8]* @p_str)
  call fastcc void @Block__proc(i12* %imgColor_rows_V_c, i11* %imgColor_cols_V_c) nounwind
  %empty_14 = call i32 (...)* @_ssdm_op_SpecChannel([20 x i8]* @imgColor_OC_rows_OC_s, i32 1, [1 x i8]* @p_str, [1 x i8]* @p_str, i32 1, i32 0, i12* %imgColor_rows_V_c40, i12* %imgColor_rows_V_c40) nounwind ; [#uses=0 type=i32]
  call void (...)* @_ssdm_op_SpecInterface(i12* %imgColor_rows_V_c40, [8 x i8]* @ap_fifo_str, i32 0, i32 0, [1 x i8]* @p_str, i32 0, i32 0, [1 x i8]* @p_str, [1 x i8]* @p_str, [1 x i8]* @p_str, i32 2, i32 2, i32 16, i32 16, [1 x i8]* @p_str, [1 x i8]* @p_str)
  %empty_15 = call i32 (...)* @_ssdm_op_SpecChannel([20 x i8]* @imgColor_OC_cols_OC_s, i32 1, [1 x i8]* @p_str, [1 x i8]* @p_str, i32 1, i32 0, i11* %imgColor_cols_V_c41, i11* %imgColor_cols_V_c41) nounwind ; [#uses=0 type=i32]
  call void (...)* @_ssdm_op_SpecInterface(i11* %imgColor_cols_V_c41, [8 x i8]* @ap_fifo_str, i32 0, i32 0, [1 x i8]* @p_str, i32 0, i32 0, [1 x i8]* @p_str, [1 x i8]* @p_str, [1 x i8]* @p_str, i32 2, i32 2, i32 16, i32 16, [1 x i8]* @p_str, [1 x i8]* @p_str)
  call fastcc void @AXIvideo2Mat(i24* %video_in_V_data_V, i3* %video_in_V_keep_V, i3* %video_in_V_strb_V, i1* %video_in_V_user_V, i1* %video_in_V_last_V, i1* %video_in_V_id_V, i1* %video_in_V_dest_V, i12* nocapture %imgColor_rows_V_c, i11* nocapture %imgColor_cols_V_c, i8* %imgColor_data_stream, i8* %imgColor_data_stream_1, i8* %imgColor_data_stream_2, i12* %imgColor_rows_V_c40, i11* %imgColor_cols_V_c41) nounwind, !dbg !12267 ; [debug line = 31:2]
  call void @llvm.dbg.declare(metadata !{i8* %imgNdg_data_stream_0}, metadata !12268), !dbg !12353 ; [debug line = 32:11] [debug variable = imgNdg.data_stream[0].V]
  call fastcc void @colorToNdg(i12* nocapture %imgColor_rows_V_c40, i11* nocapture %imgColor_cols_V_c41, i8* %imgColor_data_stream, i8* %imgColor_data_stream_1, i8* %imgColor_data_stream_2, i8* %imgNdg_data_stream_0) nounwind, !dbg !12354 ; [debug line = 34:2]
  ret i32 0, !dbg !12355                          ; [debug line = 35:1]
}

; [#uses=1]
declare i24 @llvm.part.select.i24(i24, i32, i32) nounwind readnone

; [#uses=1]
declare i22 @llvm.part.select.i22(i22, i32, i32) nounwind readnone

; [#uses=102]
declare void @llvm.dbg.value(metadata, i64, metadata) nounwind readnone

; [#uses=13]
declare void @llvm.dbg.declare(metadata, metadata) nounwind readnone

; [#uses=1]
define internal fastcc void @colorToNdg(i12* nocapture %imgColor_rows_V, i11* nocapture %imgColor_cols_V, i8* %imgColor_data_stream, i8* %imgColor_data_stream_5, i8* %imgColor_data_stream_6, i8* %imgNdg_data_stream_V) {
entry:
  call void (...)* @_ssdm_op_SpecInterface(i8* %imgColor_data_stream_6, [8 x i8]* @ap_fifo_str, i32 0, i32 0, [1 x i8]* @p_str, i32 0, i32 0, [1 x i8]* @p_str, [1 x i8]* @p_str, [1 x i8]* @p_str, i32 2, i32 2, i32 16, i32 16, [1 x i8]* @p_str, [1 x i8]* @p_str)
  call void (...)* @_ssdm_op_SpecInterface(i8* %imgColor_data_stream_5, [8 x i8]* @ap_fifo_str, i32 0, i32 0, [1 x i8]* @p_str, i32 0, i32 0, [1 x i8]* @p_str, [1 x i8]* @p_str, [1 x i8]* @p_str, i32 2, i32 2, i32 16, i32 16, [1 x i8]* @p_str, [1 x i8]* @p_str)
  call void (...)* @_ssdm_op_SpecInterface(i8* %imgColor_data_stream, [8 x i8]* @ap_fifo_str, i32 0, i32 0, [1 x i8]* @p_str, i32 0, i32 0, [1 x i8]* @p_str, [1 x i8]* @p_str, [1 x i8]* @p_str, i32 2, i32 2, i32 16, i32 16, [1 x i8]* @p_str, [1 x i8]* @p_str)
  call void (...)* @_ssdm_op_SpecInterface(i11* %imgColor_cols_V, [8 x i8]* @ap_fifo_str, i32 0, i32 0, [1 x i8]* @p_str, i32 0, i32 0, [1 x i8]* @p_str, [1 x i8]* @p_str, [1 x i8]* @p_str, i32 2, i32 2, i32 16, i32 16, [1 x i8]* @p_str, [1 x i8]* @p_str)
  call void (...)* @_ssdm_op_SpecInterface(i12* %imgColor_rows_V, [8 x i8]* @ap_fifo_str, i32 0, i32 0, [1 x i8]* @p_str, i32 0, i32 0, [1 x i8]* @p_str, [1 x i8]* @p_str, [1 x i8]* @p_str, i32 2, i32 2, i32 16, i32 16, [1 x i8]* @p_str, [1 x i8]* @p_str)
  %imgColor_rows_V_read = call i12 @_ssdm_op_Read.ap_fifo.i12P(i12* %imgColor_rows_V) ; [#uses=1 type=i12]
  %imgColor_cols_V_read = call i11 @_ssdm_op_Read.ap_fifo.i11P(i11* %imgColor_cols_V) ; [#uses=1 type=i11]
  call void @llvm.dbg.value(metadata !{i8* %imgColor_data_stream}, i64 0, metadata !12356), !dbg !20153 ; [debug line = 3:27] [debug variable = imgColor.data_stream[0].V]
  call void @llvm.dbg.value(metadata !{i8* %imgColor_data_stream_5}, i64 0, metadata !20154), !dbg !20153 ; [debug line = 3:27] [debug variable = imgColor.data_stream[1].V]
  call void @llvm.dbg.value(metadata !{i8* %imgColor_data_stream_6}, i64 0, metadata !20155), !dbg !20153 ; [debug line = 3:27] [debug variable = imgColor.data_stream[2].V]
  call void @llvm.dbg.value(metadata !{i8* %imgNdg_data_stream_V}, i64 0, metadata !20156), !dbg !20158 ; [debug line = 3:47] [debug variable = imgNdg.data_stream.V]
  %tmp_cast = sext i11 %imgColor_cols_V_read to i12, !dbg !20159 ; [#uses=1 type=i12] [debug line = 6:6]
  %tmp_4 = add i12 %tmp_cast, 1, !dbg !20159      ; [#uses=1 type=i12] [debug line = 6:6]
  %tmp_4_cast = sext i12 %tmp_4 to i32, !dbg !20159 ; [#uses=1 type=i32] [debug line = 6:6]
  %tmp_5_cast = sext i12 %imgColor_rows_V_read to i13, !dbg !20159 ; [#uses=1 type=i13] [debug line = 6:6]
  %tmp_6 = add i13 %tmp_5_cast, 1, !dbg !20159    ; [#uses=1 type=i13] [debug line = 6:6]
  %tmp_6_cast = sext i13 %tmp_6 to i32, !dbg !20159 ; [#uses=1 type=i32] [debug line = 6:6]
  br label %.loopexit, !dbg !20159                ; [debug line = 6:6]

.loopexit.loopexit:                               ; preds = %.preheader.i
  br label %.loopexit

.loopexit:                                        ; preds = %.loopexit.loopexit, %entry
  %lig_i = phi i32 [ 0, %entry ], [ %lig, %.loopexit.loopexit ] ; [#uses=2 type=i32]
  %exitcond1 = icmp eq i32 %lig_i, %tmp_6_cast, !dbg !20162 ; [#uses=1 type=i1] [debug line = 6:18]
  %lig = add nsw i32 %lig_i, 1, !dbg !20163       ; [#uses=1 type=i32] [debug line = 6:33]
  call void @llvm.dbg.value(metadata !{i32 %lig}, i64 0, metadata !20164), !dbg !20163 ; [debug line = 6:33] [debug variable = lig]
  br i1 %exitcond1, label %.exit, label %.preheader.i.preheader, !dbg !20162 ; [debug line = 6:18]

.preheader.i.preheader:                           ; preds = %.loopexit
  br label %.preheader.i, !dbg !20165             ; [debug line = 8:19]

.preheader.i:                                     ; preds = %read.exit.i, %.preheader.i.preheader
  %col_i = phi i32 [ %col, %read.exit.i ], [ 0, %.preheader.i.preheader ] ; [#uses=2 type=i32]
  %exitcond = icmp eq i32 %col_i, %tmp_4_cast, !dbg !20165 ; [#uses=1 type=i1] [debug line = 8:19]
  %col = add nsw i32 %col_i, 1, !dbg !20168       ; [#uses=1 type=i32] [debug line = 8:34]
  br i1 %exitcond, label %.loopexit.loopexit, label %read.exit.i, !dbg !20165 ; [debug line = 8:19]

read.exit.i:                                      ; preds = %.preheader.i
  call void @llvm.dbg.value(metadata !{i8* %imgColor_data_stream}, i64 0, metadata !20169), !dbg !20175 ; [debug line = 561:99@11:15] [debug variable = Mat<1024, 768, 4096>.data_stream[0].V]
  call void @llvm.dbg.value(metadata !{i8* %imgColor_data_stream_5}, i64 0, metadata !20176), !dbg !20175 ; [debug line = 561:99@11:15] [debug variable = Mat<1024, 768, 4096>.data_stream[1].V]
  call void @llvm.dbg.value(metadata !{i8* %imgColor_data_stream_6}, i64 0, metadata !20177), !dbg !20175 ; [debug line = 561:99@11:15] [debug variable = Mat<1024, 768, 4096>.data_stream[2].V]
  %tmp_13_i = call i32 (...)* @_ssdm_op_SpecRegionBegin([12 x i8]* @p_str716), !dbg !20178 ; [#uses=1 type=i32] [debug line = 617:6@11:15]
  call void (...)* @_ssdm_op_SpecProtocol(i32 0, [1 x i8]* @p_str11) nounwind, !dbg !20181 ; [debug line = 621:9@11:15]
  %tmp_2 = call i8 @_ssdm_op_Read.ap_fifo.volatile.i8P(i8* %imgColor_data_stream), !dbg !20182 ; [#uses=1 type=i8] [debug line = 125:9@102:9@624:39@11:15]
  call void @llvm.dbg.value(metadata !{i8 %tmp_2}, i64 0, metadata !20191), !dbg !20182 ; [debug line = 125:9@102:9@624:39@11:15] [debug variable = tmp]
  call void @llvm.dbg.value(metadata !{i8 %tmp_2}, i64 0, metadata !20192), !dbg !20196 ; [debug line = 126:9@102:9@624:39@11:15] [debug variable = scl.val[0]]
  %tmp_3 = call i8 @_ssdm_op_Read.ap_fifo.volatile.i8P(i8* %imgColor_data_stream_5), !dbg !20182 ; [#uses=1 type=i8] [debug line = 125:9@102:9@624:39@11:15]
  call void @llvm.dbg.value(metadata !{i8 %tmp_3}, i64 0, metadata !20191), !dbg !20182 ; [debug line = 125:9@102:9@624:39@11:15] [debug variable = tmp]
  call void @llvm.dbg.value(metadata !{i8 %tmp_3}, i64 0, metadata !20197), !dbg !20196 ; [debug line = 126:9@102:9@624:39@11:15] [debug variable = scl.val[1]]
  %tmp = call i8 @_ssdm_op_Read.ap_fifo.volatile.i8P(i8* %imgColor_data_stream_6), !dbg !20182 ; [#uses=1 type=i8] [debug line = 125:9@102:9@624:39@11:15]
  call void @llvm.dbg.value(metadata !{i8 %tmp}, i64 0, metadata !20191), !dbg !20182 ; [debug line = 125:9@102:9@624:39@11:15] [debug variable = tmp]
  %empty = call i32 (...)* @_ssdm_op_SpecRegionEnd([12 x i8]* @p_str716, i32 %tmp_13_i), !dbg !20198 ; [#uses=0 type=i32] [debug line = 626:5@11:15]
  %tmp_7_cast_i = zext i8 %tmp_2 to i9, !dbg !20199 ; [#uses=1 type=i9] [debug line = 12:69]
  %tmp_8_cast_i = zext i8 %tmp_3 to i9, !dbg !20199 ; [#uses=1 type=i9] [debug line = 12:69]
  %tmp_9_cast_i = zext i8 %tmp to i10, !dbg !20199 ; [#uses=1 type=i10] [debug line = 12:69]
  %tmp_1_i = add i9 %tmp_8_cast_i, %tmp_7_cast_i, !dbg !20199 ; [#uses=1 type=i9] [debug line = 12:69]
  %tmp_1_cast_i = zext i9 %tmp_1_i to i10, !dbg !20199 ; [#uses=1 type=i10] [debug line = 12:69]
  %tmp_2_i = add i10 %tmp_1_cast_i, %tmp_9_cast_i, !dbg !20199 ; [#uses=1 type=i10] [debug line = 12:69]
  %zext_cast = zext i10 %tmp_2_i to i22, !dbg !20199 ; [#uses=1 type=i22] [debug line = 12:69]
  %mul = mul i22 %zext_cast, 1366, !dbg !20199    ; [#uses=1 type=i22] [debug line = 12:69]
  %tmp_1 = call i8 @_ssdm_op_PartSelect.i8.i22.i32.i32(i22 %mul, i32 12, i32 19), !dbg !20200 ; [#uses=1 type=i8] [debug line = 14:4]
  call void @llvm.dbg.value(metadata !{i8 %tmp_1}, i64 0, metadata !20201) nounwind, !dbg !20203 ; [debug line = 198:24@14:4] [debug variable = value]
  call void @llvm.dbg.value(metadata !{i8* %imgNdg_data_stream_V}, i64 0, metadata !20204), !dbg !20209 ; [debug line = 563:10@15:4] [debug variable = Mat<1024, 768, 0>.data_stream.V]
  %tmp_15_i = call i32 (...)* @_ssdm_op_SpecRegionBegin([12 x i8]* @p_str312), !dbg !20210 ; [#uses=1 type=i32] [debug line = 641:6@15:4]
  call void (...)* @_ssdm_op_SpecProtocol(i32 0, [1 x i8]* @p_str11) nounwind, !dbg !20213 ; [debug line = 645:1@15:4]
  call void @llvm.dbg.value(metadata !{i8 %tmp_1}, i64 0, metadata !20214) nounwind, !dbg !20223 ; [debug line = 145:31@106:9@648:37@15:4] [debug variable = tmp]
  call void @llvm.dbg.value(metadata !{i8 %tmp_1}, i64 0, metadata !20224), !dbg !20223 ; [debug line = 145:31@106:9@648:37@15:4] [debug variable = tmp]
  call void @_ssdm_op_Write.ap_auto.volatile.i8P(i8* %imgNdg_data_stream_V, i8 %tmp_1), !dbg !20225 ; [debug line = 146:9@106:9@648:37@15:4]
  %empty_16 = call i32 (...)* @_ssdm_op_SpecRegionEnd([12 x i8]* @p_str312, i32 %tmp_15_i), !dbg !20226 ; [#uses=0 type=i32] [debug line = 650:5@15:4]
  call void @llvm.dbg.value(metadata !{i32 %col}, i64 0, metadata !20227), !dbg !20168 ; [debug line = 8:34] [debug variable = col]
  br label %.preheader.i, !dbg !20168             ; [debug line = 8:34]

.exit:                                            ; preds = %.loopexit
  ret void
}

; [#uses=3]
define weak void @_ssdm_op_Write.ap_fifo.volatile.i8P(i8*, i8) {
entry:
  %empty = call i8 @_autotb_FifoWrite_i8(i8* %0, i8 %1) ; [#uses=0 type=i8]
  ret void
}

; [#uses=2]
define weak void @_ssdm_op_Write.ap_fifo.i12P(i12*, i12) {
entry:
  %empty = call i12 @_autotb_FifoWrite_i12(i12* %0, i12 %1) ; [#uses=0 type=i12]
  ret void
}

; [#uses=2]
define weak void @_ssdm_op_Write.ap_fifo.i11P(i11*, i11) {
entry:
  %empty = call i11 @_autotb_FifoWrite_i11(i11* %0, i11 %1) ; [#uses=0 type=i11]
  ret void
}

; [#uses=1]
define weak void @_ssdm_op_Write.ap_auto.volatile.i8P(i8*, i8) {
entry:
  store i8 %1, i8* %0
  ret void
}

; [#uses=1]
define weak void @_ssdm_op_SpecTopModule(...) {
entry:
  ret void
}

; [#uses=7]
define weak i32 @_ssdm_op_SpecRegionEnd(...) {
entry:
  ret i32 0
}

; [#uses=7]
define weak i32 @_ssdm_op_SpecRegionBegin(...) {
entry:
  ret i32 0
}

; [#uses=3]
define weak void @_ssdm_op_SpecProtocol(...) nounwind {
entry:
  ret void
}

; [#uses=3]
define weak void @_ssdm_op_SpecPipeline(...) nounwind {
entry:
  ret void
}

; [#uses=4]
define weak void @_ssdm_op_SpecLoopTripCount(...) nounwind {
entry:
  ret void
}

; [#uses=4]
define weak void @_ssdm_op_SpecLoopName(...) nounwind {
entry:
  ret void
}

; [#uses=26]
define weak void @_ssdm_op_SpecInterface(...) nounwind {
entry:
  ret void
}

; [#uses=1]
define weak void @_ssdm_op_SpecDataflowPipeline(...) nounwind {
entry:
  ret void
}

; [#uses=7]
define weak i32 @_ssdm_op_SpecChannel(...) {
entry:
  ret i32 0
}

; [#uses=1]
define weak void @_ssdm_op_SpecBitsMap(...) {
entry:
  ret void
}

; [#uses=3]
define weak i8 @_ssdm_op_Read.ap_fifo.volatile.i8P(i8*) {
entry:
  %empty = call i8 @_autotb_FifoRead_i8(i8* %0)   ; [#uses=1 type=i8]
  ret i8 %empty
}

; [#uses=2]
define weak i12 @_ssdm_op_Read.ap_fifo.i12P(i12*) {
entry:
  %empty = call i12 @_autotb_FifoRead_i12(i12* %0) ; [#uses=1 type=i12]
  ret i12 %empty
}

; [#uses=2]
define weak i11 @_ssdm_op_Read.ap_fifo.i11P(i11*) {
entry:
  %empty = call i11 @_autotb_FifoRead_i11(i11* %0) ; [#uses=1 type=i11]
  ret i11 %empty
}

; [#uses=3]
define weak { i24, i3, i3, i1, i1, i1, i1 } @_ssdm_op_Read.ap_auto.volatile.i24P.i3P.i3P.i1P.i1P.i1P.i1P(i24*, i3*, i3*, i1*, i1*, i1*, i1*) {
entry:
  %empty = load i24* %0                           ; [#uses=1 type=i24]
  %empty_17 = load i3* %1                         ; [#uses=1 type=i3]
  %empty_18 = load i3* %2                         ; [#uses=1 type=i3]
  %empty_19 = load i1* %3                         ; [#uses=1 type=i1]
  %empty_20 = load i1* %4                         ; [#uses=1 type=i1]
  %empty_21 = load i1* %5                         ; [#uses=1 type=i1]
  %empty_22 = load i1* %6                         ; [#uses=1 type=i1]
  %mrv_0 = insertvalue { i24, i3, i3, i1, i1, i1, i1 } undef, i24 %empty, 0 ; [#uses=1 type={ i24, i3, i3, i1, i1, i1, i1 }]
  %mrv1 = insertvalue { i24, i3, i3, i1, i1, i1, i1 } %mrv_0, i3 %empty_17, 1 ; [#uses=1 type={ i24, i3, i3, i1, i1, i1, i1 }]
  %mrv2 = insertvalue { i24, i3, i3, i1, i1, i1, i1 } %mrv1, i3 %empty_18, 2 ; [#uses=1 type={ i24, i3, i3, i1, i1, i1, i1 }]
  %mrv3 = insertvalue { i24, i3, i3, i1, i1, i1, i1 } %mrv2, i1 %empty_19, 3 ; [#uses=1 type={ i24, i3, i3, i1, i1, i1, i1 }]
  %mrv4 = insertvalue { i24, i3, i3, i1, i1, i1, i1 } %mrv3, i1 %empty_20, 4 ; [#uses=1 type={ i24, i3, i3, i1, i1, i1, i1 }]
  %mrv5 = insertvalue { i24, i3, i3, i1, i1, i1, i1 } %mrv4, i1 %empty_21, 5 ; [#uses=1 type={ i24, i3, i3, i1, i1, i1, i1 }]
  %mrv6 = insertvalue { i24, i3, i3, i1, i1, i1, i1 } %mrv5, i1 %empty_22, 6 ; [#uses=1 type={ i24, i3, i3, i1, i1, i1, i1 }]
  ret { i24, i3, i3, i1, i1, i1, i1 } %mrv6
}

; [#uses=2]
define weak i8 @_ssdm_op_PartSelect.i8.i24.i32.i32(i24, i32, i32) nounwind readnone {
entry:
  %empty = call i24 @llvm.part.select.i24(i24 %0, i32 %1, i32 %2) ; [#uses=1 type=i24]
  %empty_23 = trunc i24 %empty to i8              ; [#uses=1 type=i8]
  ret i8 %empty_23
}

; [#uses=1]
define weak i8 @_ssdm_op_PartSelect.i8.i22.i32.i32(i22, i32, i32) nounwind readnone {
entry:
  %empty = call i22 @llvm.part.select.i22(i22 %0, i32 %1, i32 %2) ; [#uses=1 type=i22]
  %empty_24 = trunc i22 %empty to i8              ; [#uses=1 type=i8]
  ret i8 %empty_24
}

; [#uses=1]
declare i8 @_autotb_FifoWrite_i8(i8*, i8)

; [#uses=1]
declare i12 @_autotb_FifoWrite_i12(i12*, i12)

; [#uses=1]
declare i11 @_autotb_FifoWrite_i11(i11*, i11)

; [#uses=1]
declare i8 @_autotb_FifoRead_i8(i8*)

; [#uses=1]
declare i12 @_autotb_FifoRead_i12(i12*)

; [#uses=1]
declare i11 @_autotb_FifoRead_i11(i11*)

; [#uses=1]
declare void @_GLOBAL__I_a() nounwind section ".text.startup"

; [#uses=1]
define internal fastcc void @Block__proc(i12* %imgColor_rows_V_out, i11* %imgColor_cols_V_out) nounwind {
entry:
  call void (...)* @_ssdm_op_SpecInterface(i11* %imgColor_cols_V_out, [8 x i8]* @ap_fifo_str, i32 0, i32 0, [1 x i8]* @p_str, i32 0, i32 0, [1 x i8]* @p_str, [1 x i8]* @p_str, [1 x i8]* @p_str, i32 2, i32 2, i32 16, i32 16, [1 x i8]* @p_str, [1 x i8]* @p_str)
  call void (...)* @_ssdm_op_SpecInterface(i12* %imgColor_rows_V_out, [8 x i8]* @ap_fifo_str, i32 0, i32 0, [1 x i8]* @p_str, i32 0, i32 0, [1 x i8]* @p_str, [1 x i8]* @p_str, [1 x i8]* @p_str, i32 2, i32 2, i32 16, i32 16, [1 x i8]* @p_str, [1 x i8]* @p_str)
  call void @llvm.dbg.declare(metadata !{i12* %imgColor_rows_V_out}, metadata !20228), !dbg !12264 ; [debug line = 30:11] [debug variable = imgColor.rows.V]
  call void @llvm.dbg.declare(metadata !{i11* %imgColor_cols_V_out}, metadata !20237), !dbg !12264 ; [debug line = 30:11] [debug variable = imgColor.cols.V]
  call void @_ssdm_op_Write.ap_fifo.i12P(i12* %imgColor_rows_V_out, i12 1024) nounwind, !dbg !20238 ; [debug line = 281:5@601:5@581:5@582:1@30:19]
  call void @_ssdm_op_Write.ap_fifo.i11P(i11* %imgColor_cols_V_out, i11 768) nounwind, !dbg !20250 ; [debug line = 281:5@602:5@581:5@582:1@30:19]
  ret void
}

; [#uses=1]
define internal fastcc void @AXIvideo2Mat(i24* %AXI_video_strm_V_data_V, i3* %AXI_video_strm_V_keep_V, i3* %AXI_video_strm_V_strb_V, i1* %AXI_video_strm_V_user_V, i1* %AXI_video_strm_V_last_V, i1* %AXI_video_strm_V_id_V, i1* %AXI_video_strm_V_dest_V, i12* nocapture %img_rows_V, i11* nocapture %img_cols_V, i8* %img_data_stream_0_V, i8* %img_data_stream_1_V, i8* %img_data_stream_2_V, i12* %img_rows_V_out, i11* %img_cols_V_out) {
entry:
  call void (...)* @_ssdm_op_SpecInterface(i8* %img_data_stream_2_V, [8 x i8]* @ap_fifo_str, i32 0, i32 0, [1 x i8]* @p_str, i32 0, i32 0, [1 x i8]* @p_str, [1 x i8]* @p_str, [1 x i8]* @p_str, i32 2, i32 2, i32 16, i32 16, [1 x i8]* @p_str, [1 x i8]* @p_str)
  call void (...)* @_ssdm_op_SpecInterface(i8* %img_data_stream_1_V, [8 x i8]* @ap_fifo_str, i32 0, i32 0, [1 x i8]* @p_str, i32 0, i32 0, [1 x i8]* @p_str, [1 x i8]* @p_str, [1 x i8]* @p_str, i32 2, i32 2, i32 16, i32 16, [1 x i8]* @p_str, [1 x i8]* @p_str)
  call void (...)* @_ssdm_op_SpecInterface(i8* %img_data_stream_0_V, [8 x i8]* @ap_fifo_str, i32 0, i32 0, [1 x i8]* @p_str, i32 0, i32 0, [1 x i8]* @p_str, [1 x i8]* @p_str, [1 x i8]* @p_str, i32 2, i32 2, i32 16, i32 16, [1 x i8]* @p_str, [1 x i8]* @p_str)
  call void (...)* @_ssdm_op_SpecInterface(i11* %img_cols_V, [8 x i8]* @ap_fifo_str, i32 0, i32 0, [1 x i8]* @p_str, i32 0, i32 0, [1 x i8]* @p_str, [1 x i8]* @p_str, [1 x i8]* @p_str, i32 2, i32 2, i32 16, i32 16, [1 x i8]* @p_str, [1 x i8]* @p_str)
  call void (...)* @_ssdm_op_SpecInterface(i12* %img_rows_V, [8 x i8]* @ap_fifo_str, i32 0, i32 0, [1 x i8]* @p_str, i32 0, i32 0, [1 x i8]* @p_str, [1 x i8]* @p_str, [1 x i8]* @p_str, i32 2, i32 2, i32 16, i32 16, [1 x i8]* @p_str, [1 x i8]* @p_str)
  %img_rows_V_read = call i12 @_ssdm_op_Read.ap_fifo.i12P(i12* %img_rows_V) ; [#uses=2 type=i12]
  %img_cols_V_read = call i11 @_ssdm_op_Read.ap_fifo.i11P(i11* %img_cols_V) ; [#uses=2 type=i11]
  call void (...)* @_ssdm_op_SpecInterface(i12* %img_rows_V_out, [8 x i8]* @ap_fifo_str, i32 0, i32 0, [1 x i8]* @p_str, i32 0, i32 0, [1 x i8]* @p_str, [1 x i8]* @p_str, [1 x i8]* @p_str, i32 2, i32 2, i32 16, i32 16, [1 x i8]* @p_str, [1 x i8]* @p_str)
  call void @_ssdm_op_Write.ap_fifo.i12P(i12* %img_rows_V_out, i12 %img_rows_V_read)
  call void (...)* @_ssdm_op_SpecInterface(i11* %img_cols_V_out, [8 x i8]* @ap_fifo_str, i32 0, i32 0, [1 x i8]* @p_str, i32 0, i32 0, [1 x i8]* @p_str, [1 x i8]* @p_str, [1 x i8]* @p_str, i32 2, i32 2, i32 16, i32 16, [1 x i8]* @p_str, [1 x i8]* @p_str)
  call void @_ssdm_op_Write.ap_fifo.i11P(i11* %img_cols_V_out, i11 %img_cols_V_read)
  call void @llvm.dbg.value(metadata !{i24* %AXI_video_strm_V_data_V}, i64 0, metadata !20252), !dbg !20262 ; [debug line = 51:45] [debug variable = AXI_video_strm.V.data.V]
  call void @llvm.dbg.value(metadata !{i3* %AXI_video_strm_V_keep_V}, i64 0, metadata !20263), !dbg !20262 ; [debug line = 51:45] [debug variable = AXI_video_strm.V.keep.V]
  call void @llvm.dbg.value(metadata !{i3* %AXI_video_strm_V_strb_V}, i64 0, metadata !20265), !dbg !20262 ; [debug line = 51:45] [debug variable = AXI_video_strm.V.strb.V]
  call void @llvm.dbg.value(metadata !{i1* %AXI_video_strm_V_user_V}, i64 0, metadata !20266), !dbg !20262 ; [debug line = 51:45] [debug variable = AXI_video_strm.V.user.V]
  call void @llvm.dbg.value(metadata !{i1* %AXI_video_strm_V_last_V}, i64 0, metadata !20268), !dbg !20262 ; [debug line = 51:45] [debug variable = AXI_video_strm.V.last.V]
  call void @llvm.dbg.value(metadata !{i1* %AXI_video_strm_V_id_V}, i64 0, metadata !20269), !dbg !20262 ; [debug line = 51:45] [debug variable = AXI_video_strm.V.id.V]
  call void @llvm.dbg.value(metadata !{i1* %AXI_video_strm_V_dest_V}, i64 0, metadata !20270), !dbg !20262 ; [debug line = 51:45] [debug variable = AXI_video_strm.V.dest.V]
  call void @llvm.dbg.value(metadata !{i8* %img_data_stream_0_V}, i64 0, metadata !20271), !dbg !20274 ; [debug line = 52:38] [debug variable = img.data_stream[0].V]
  call void @llvm.dbg.value(metadata !{i8* %img_data_stream_1_V}, i64 0, metadata !20275), !dbg !20274 ; [debug line = 52:38] [debug variable = img.data_stream[1].V]
  call void @llvm.dbg.value(metadata !{i8* %img_data_stream_2_V}, i64 0, metadata !20276), !dbg !20274 ; [debug line = 52:38] [debug variable = img.data_stream[2].V]
  br label %.preheader187.i, !dbg !20277          ; [debug line = 63:7]

.preheader187.i:                                  ; preds = %.preheader187.i, %entry
  call void (...)* @_ssdm_op_SpecLoopName([20 x i8]* @p_str18) nounwind, !dbg !20279 ; [debug line = 65:37]
  %tmp_i = call i32 (...)* @_ssdm_op_SpecRegionBegin([20 x i8]* @p_str18), !dbg !20279 ; [#uses=1 type=i32] [debug line = 65:37]
  call void (...)* @_ssdm_op_SpecPipeline(i32 1, i32 1, i32 1, i32 0, [1 x i8]* @p_str4) nounwind, !dbg !20281 ; [debug line = 66:1]
  call void (...)* @_ssdm_op_SpecLoopTripCount(i32 0, i32 0, i32 0, [1 x i8]* @p_str4) nounwind, !dbg !20282 ; [debug line = 67:1]
  call void @llvm.dbg.value(metadata !{i24* %AXI_video_strm_V_data_V}, i64 0, metadata !20283), !dbg !20288 ; [debug line = 101:48@68:9] [debug variable = stream<ap_axiu<24, 1, 1, 1> >.V.data.V]
  call void @llvm.dbg.value(metadata !{i3* %AXI_video_strm_V_keep_V}, i64 0, metadata !20290), !dbg !20288 ; [debug line = 101:48@68:9] [debug variable = stream<ap_axiu<24, 1, 1, 1> >.V.keep.V]
  call void @llvm.dbg.value(metadata !{i3* %AXI_video_strm_V_strb_V}, i64 0, metadata !20292), !dbg !20288 ; [debug line = 101:48@68:9] [debug variable = stream<ap_axiu<24, 1, 1, 1> >.V.strb.V]
  call void @llvm.dbg.value(metadata !{i1* %AXI_video_strm_V_user_V}, i64 0, metadata !20293), !dbg !20288 ; [debug line = 101:48@68:9] [debug variable = stream<ap_axiu<24, 1, 1, 1> >.V.user.V]
  call void @llvm.dbg.value(metadata !{i1* %AXI_video_strm_V_last_V}, i64 0, metadata !20295), !dbg !20288 ; [debug line = 101:48@68:9] [debug variable = stream<ap_axiu<24, 1, 1, 1> >.V.last.V]
  call void @llvm.dbg.value(metadata !{i1* %AXI_video_strm_V_id_V}, i64 0, metadata !20296), !dbg !20288 ; [debug line = 101:48@68:9] [debug variable = stream<ap_axiu<24, 1, 1, 1> >.V.id.V]
  call void @llvm.dbg.value(metadata !{i1* %AXI_video_strm_V_dest_V}, i64 0, metadata !20297), !dbg !20288 ; [debug line = 101:48@68:9] [debug variable = stream<ap_axiu<24, 1, 1, 1> >.V.dest.V]
  call void @llvm.dbg.value(metadata !{i24* %AXI_video_strm_V_data_V}, i64 0, metadata !20298), !dbg !20301 ; [debug line = 123:48@102:9@68:9] [debug variable = stream<ap_axiu<24, 1, 1, 1> >.V.data.V]
  call void @llvm.dbg.value(metadata !{i3* %AXI_video_strm_V_keep_V}, i64 0, metadata !20304), !dbg !20301 ; [debug line = 123:48@102:9@68:9] [debug variable = stream<ap_axiu<24, 1, 1, 1> >.V.keep.V]
  call void @llvm.dbg.value(metadata !{i3* %AXI_video_strm_V_strb_V}, i64 0, metadata !20305), !dbg !20301 ; [debug line = 123:48@102:9@68:9] [debug variable = stream<ap_axiu<24, 1, 1, 1> >.V.strb.V]
  call void @llvm.dbg.value(metadata !{i1* %AXI_video_strm_V_user_V}, i64 0, metadata !20306), !dbg !20301 ; [debug line = 123:48@102:9@68:9] [debug variable = stream<ap_axiu<24, 1, 1, 1> >.V.user.V]
  call void @llvm.dbg.value(metadata !{i1* %AXI_video_strm_V_last_V}, i64 0, metadata !20307), !dbg !20301 ; [debug line = 123:48@102:9@68:9] [debug variable = stream<ap_axiu<24, 1, 1, 1> >.V.last.V]
  call void @llvm.dbg.value(metadata !{i1* %AXI_video_strm_V_id_V}, i64 0, metadata !20308), !dbg !20301 ; [debug line = 123:48@102:9@68:9] [debug variable = stream<ap_axiu<24, 1, 1, 1> >.V.id.V]
  call void @llvm.dbg.value(metadata !{i1* %AXI_video_strm_V_dest_V}, i64 0, metadata !20309), !dbg !20301 ; [debug line = 123:48@102:9@68:9] [debug variable = stream<ap_axiu<24, 1, 1, 1> >.V.dest.V]
  %empty = call { i24, i3, i3, i1, i1, i1, i1 } @_ssdm_op_Read.ap_auto.volatile.i24P.i3P.i3P.i1P.i1P.i1P.i1P(i24* %AXI_video_strm_V_data_V, i3* %AXI_video_strm_V_keep_V, i3* %AXI_video_strm_V_strb_V, i1* %AXI_video_strm_V_user_V, i1* %AXI_video_strm_V_last_V, i1* %AXI_video_strm_V_id_V, i1* %AXI_video_strm_V_dest_V), !dbg !20310 ; [#uses=3 type={ i24, i3, i3, i1, i1, i1, i1 }] [debug line = 125:9@102:9@68:9]
  %tmp_data_V = extractvalue { i24, i3, i3, i1, i1, i1, i1 } %empty, 0, !dbg !20310 ; [#uses=1 type=i24] [debug line = 125:9@102:9@68:9]
  %tmp_user_V = extractvalue { i24, i3, i3, i1, i1, i1, i1 } %empty, 3, !dbg !20310 ; [#uses=1 type=i1] [debug line = 125:9@102:9@68:9]
  %tmp_last_V = extractvalue { i24, i3, i3, i1, i1, i1, i1 } %empty, 4, !dbg !20310 ; [#uses=1 type=i1] [debug line = 125:9@102:9@68:9]
  call void @llvm.dbg.value(metadata !{i24 %tmp_data_V}, i64 0, metadata !20312), !dbg !20310 ; [debug line = 125:9@102:9@68:9] [debug variable = tmp.data.V]
  call void @llvm.dbg.value(metadata !{i1 %tmp_user_V}, i64 0, metadata !20314), !dbg !20310 ; [debug line = 125:9@102:9@68:9] [debug variable = tmp.user.V]
  call void @llvm.dbg.value(metadata !{i1 %tmp_last_V}, i64 0, metadata !20315), !dbg !20310 ; [debug line = 125:9@102:9@68:9] [debug variable = tmp.last.V]
  call void @llvm.dbg.value(metadata !{i24 %tmp_data_V}, i64 0, metadata !20316), !dbg !20318 ; [debug line = 281:5@100:10@126:9@102:9@68:9] [debug variable = axi.data.V]
  call void @llvm.dbg.value(metadata !{i1 %tmp_user_V}, i64 0, metadata !20328), !dbg !20329 ; [debug line = 281:5@100:10@126:9@102:9@68:9] [debug variable = axi.user.V]
  call void @llvm.dbg.value(metadata !{i1 %tmp_last_V}, i64 0, metadata !20332), !dbg !20329 ; [debug line = 281:5@100:10@126:9@102:9@68:9] [debug variable = axi.last.V]
  call void @llvm.dbg.value(metadata !{i1 %tmp_user_V}, i64 0, metadata !20333), !dbg !20334 ; [debug line = 69:15] [debug variable = sof]
  %empty_25 = call i32 (...)* @_ssdm_op_SpecRegionEnd([20 x i8]* @p_str18, i32 %tmp_i), !dbg !20335 ; [#uses=0 type=i32] [debug line = 70:5]
  br i1 %tmp_user_V, label %.preheader186.i.preheader, label %.preheader187.i, !dbg !20336 ; [debug line = 65:23]

.preheader186.i.preheader:                        ; preds = %.preheader187.i
  %sof_1_i = alloca i1                            ; [#uses=3 type=i1*]
  store i1 true, i1* %sof_1_i
  br label %.preheader186.i, !dbg !20337          ; [debug line = 71:38]

.preheader186.i:                                  ; preds = %5, %.preheader186.i.preheader
  %axi_last_V1_i = phi i1 [ %axi_last_V_3_i, %5 ], [ %tmp_last_V, %.preheader186.i.preheader ] ; [#uses=1 type=i1]
  %axi_data_V1_i = phi i24 [ %axi_data_V_3_i, %5 ], [ %tmp_data_V, %.preheader186.i.preheader ] ; [#uses=1 type=i24]
  %t_V = phi i11 [ %i_V, %5 ], [ 0, %.preheader186.i.preheader ] ; [#uses=2 type=i11]
  %t_V_cast_i = zext i11 %t_V to i12, !dbg !20337 ; [#uses=1 type=i12] [debug line = 71:38]
  %exitcond1_i = icmp eq i12 %t_V_cast_i, %img_rows_V_read, !dbg !20337 ; [#uses=1 type=i1] [debug line = 71:38]
  call void (...)* @_ssdm_op_SpecLoopTripCount(i64 0, i64 1024, i64 0)
  %i_V = add i11 %t_V, 1, !dbg !20339             ; [#uses=1 type=i11] [debug line = 1879:145@1909:5@71:48]
  br i1 %exitcond1_i, label %.exit, label %0, !dbg !20337 ; [debug line = 71:38]

; <label>:0                                       ; preds = %.preheader186.i
  call void (...)* @_ssdm_op_SpecLoopName([12 x i8]* @p_str19) nounwind, !dbg !20348 ; [debug line = 71:54]
  %tmp_1_i = call i32 (...)* @_ssdm_op_SpecRegionBegin([12 x i8]* @p_str19), !dbg !20348 ; [#uses=1 type=i32] [debug line = 71:54]
  br label %1, !dbg !20350                        ; [debug line = 73:38]

; <label>:1                                       ; preds = %._crit_edge.i, %0
  %eol = phi i1 [ %axi_last_V1_i, %0 ], [ %axi_last_V_2_i, %._crit_edge.i ] ; [#uses=2 type=i1]
  %axi_data_V_1_i = phi i24 [ %axi_data_V1_i, %0 ], [ %p_Val2_s, %._crit_edge.i ] ; [#uses=2 type=i24]
  %t_V_1 = phi i10 [ 0, %0 ], [ %j_V, %._crit_edge.i ] ; [#uses=2 type=i10]
  %eol_i = phi i1 [ false, %0 ], [ %axi_last_V_2_i, %._crit_edge.i ] ; [#uses=2 type=i1]
  %t_V_1_cast_i = zext i10 %t_V_1 to i11, !dbg !20352 ; [#uses=1 type=i11] [debug line = 78:23]
  call void @llvm.dbg.value(metadata !{i1 %eol}, i64 0, metadata !20355), !dbg !20352 ; [debug line = 78:23] [debug variable = eol]
  %exitcond_i = icmp eq i11 %t_V_1_cast_i, %img_cols_V_read, !dbg !20356 ; [#uses=1 type=i1] [debug line = 73:40]
  call void (...)* @_ssdm_op_SpecLoopTripCount(i64 0, i64 768, i64 0)
  %j_V = add i10 %t_V_1, 1, !dbg !20357           ; [#uses=1 type=i10] [debug line = 1879:145@1909:5@73:50]
  br i1 %exitcond_i, label %.preheader.i.preheader, label %2, !dbg !20356 ; [debug line = 73:40]

.preheader.i.preheader:                           ; preds = %1
  br label %.preheader.i, !dbg !20360             ; [debug line = 96:24]

; <label>:2                                       ; preds = %1
  %sof_1_i_load = load i1* %sof_1_i, !dbg !20361  ; [#uses=1 type=i1] [debug line = 76:13]
  call void (...)* @_ssdm_op_SpecLoopName([11 x i8]* @p_str20) nounwind, !dbg !20362 ; [debug line = 73:56]
  %tmp_2_i = call i32 (...)* @_ssdm_op_SpecRegionBegin([11 x i8]* @p_str20), !dbg !20362 ; [#uses=1 type=i32] [debug line = 73:56]
  call void (...)* @_ssdm_op_SpecPipeline(i32 1, i32 1, i32 1, i32 0, [1 x i8]* @p_str4) nounwind, !dbg !20363 ; [debug line = 75:1]
  %brmerge_i = or i1 %sof_1_i_load, %eol_i, !dbg !20361 ; [#uses=1 type=i1] [debug line = 76:13]
  br i1 %brmerge_i, label %._crit_edge.i, label %3, !dbg !20361 ; [debug line = 76:13]

; <label>:3                                       ; preds = %2
  call void @llvm.dbg.value(metadata !{i24* %AXI_video_strm_V_data_V}, i64 0, metadata !20283), !dbg !20364 ; [debug line = 101:48@81:17] [debug variable = stream<ap_axiu<24, 1, 1, 1> >.V.data.V]
  call void @llvm.dbg.value(metadata !{i3* %AXI_video_strm_V_keep_V}, i64 0, metadata !20290), !dbg !20364 ; [debug line = 101:48@81:17] [debug variable = stream<ap_axiu<24, 1, 1, 1> >.V.keep.V]
  call void @llvm.dbg.value(metadata !{i3* %AXI_video_strm_V_strb_V}, i64 0, metadata !20292), !dbg !20364 ; [debug line = 101:48@81:17] [debug variable = stream<ap_axiu<24, 1, 1, 1> >.V.strb.V]
  call void @llvm.dbg.value(metadata !{i1* %AXI_video_strm_V_user_V}, i64 0, metadata !20293), !dbg !20364 ; [debug line = 101:48@81:17] [debug variable = stream<ap_axiu<24, 1, 1, 1> >.V.user.V]
  call void @llvm.dbg.value(metadata !{i1* %AXI_video_strm_V_last_V}, i64 0, metadata !20295), !dbg !20364 ; [debug line = 101:48@81:17] [debug variable = stream<ap_axiu<24, 1, 1, 1> >.V.last.V]
  call void @llvm.dbg.value(metadata !{i1* %AXI_video_strm_V_id_V}, i64 0, metadata !20296), !dbg !20364 ; [debug line = 101:48@81:17] [debug variable = stream<ap_axiu<24, 1, 1, 1> >.V.id.V]
  call void @llvm.dbg.value(metadata !{i1* %AXI_video_strm_V_dest_V}, i64 0, metadata !20297), !dbg !20364 ; [debug line = 101:48@81:17] [debug variable = stream<ap_axiu<24, 1, 1, 1> >.V.dest.V]
  call void @llvm.dbg.value(metadata !{i24* %AXI_video_strm_V_data_V}, i64 0, metadata !20298), !dbg !20367 ; [debug line = 123:48@102:9@81:17] [debug variable = stream<ap_axiu<24, 1, 1, 1> >.V.data.V]
  call void @llvm.dbg.value(metadata !{i3* %AXI_video_strm_V_keep_V}, i64 0, metadata !20304), !dbg !20367 ; [debug line = 123:48@102:9@81:17] [debug variable = stream<ap_axiu<24, 1, 1, 1> >.V.keep.V]
  call void @llvm.dbg.value(metadata !{i3* %AXI_video_strm_V_strb_V}, i64 0, metadata !20305), !dbg !20367 ; [debug line = 123:48@102:9@81:17] [debug variable = stream<ap_axiu<24, 1, 1, 1> >.V.strb.V]
  call void @llvm.dbg.value(metadata !{i1* %AXI_video_strm_V_user_V}, i64 0, metadata !20306), !dbg !20367 ; [debug line = 123:48@102:9@81:17] [debug variable = stream<ap_axiu<24, 1, 1, 1> >.V.user.V]
  call void @llvm.dbg.value(metadata !{i1* %AXI_video_strm_V_last_V}, i64 0, metadata !20307), !dbg !20367 ; [debug line = 123:48@102:9@81:17] [debug variable = stream<ap_axiu<24, 1, 1, 1> >.V.last.V]
  call void @llvm.dbg.value(metadata !{i1* %AXI_video_strm_V_id_V}, i64 0, metadata !20308), !dbg !20367 ; [debug line = 123:48@102:9@81:17] [debug variable = stream<ap_axiu<24, 1, 1, 1> >.V.id.V]
  call void @llvm.dbg.value(metadata !{i1* %AXI_video_strm_V_dest_V}, i64 0, metadata !20309), !dbg !20367 ; [debug line = 123:48@102:9@81:17] [debug variable = stream<ap_axiu<24, 1, 1, 1> >.V.dest.V]
  %empty_26 = call { i24, i3, i3, i1, i1, i1, i1 } @_ssdm_op_Read.ap_auto.volatile.i24P.i3P.i3P.i1P.i1P.i1P.i1P(i24* %AXI_video_strm_V_data_V, i3* %AXI_video_strm_V_keep_V, i3* %AXI_video_strm_V_strb_V, i1* %AXI_video_strm_V_user_V, i1* %AXI_video_strm_V_last_V, i1* %AXI_video_strm_V_id_V, i1* %AXI_video_strm_V_dest_V), !dbg !20369 ; [#uses=2 type={ i24, i3, i3, i1, i1, i1, i1 }] [debug line = 125:9@102:9@81:17]
  %tmp_data_V_1 = extractvalue { i24, i3, i3, i1, i1, i1, i1 } %empty_26, 0, !dbg !20369 ; [#uses=1 type=i24] [debug line = 125:9@102:9@81:17]
  %tmp_last_V_1 = extractvalue { i24, i3, i3, i1, i1, i1, i1 } %empty_26, 4, !dbg !20369 ; [#uses=1 type=i1] [debug line = 125:9@102:9@81:17]
  call void @llvm.dbg.value(metadata !{i24 %tmp_data_V_1}, i64 0, metadata !20312), !dbg !20369 ; [debug line = 125:9@102:9@81:17] [debug variable = tmp.data.V]
  call void @llvm.dbg.value(metadata !{i1 %tmp_last_V_1}, i64 0, metadata !20315), !dbg !20369 ; [debug line = 125:9@102:9@81:17] [debug variable = tmp.last.V]
  call void @llvm.dbg.value(metadata !{i24 %tmp_data_V_1}, i64 0, metadata !20316), !dbg !20370 ; [debug line = 281:5@100:10@126:9@102:9@81:17] [debug variable = axi.data.V]
  call void @llvm.dbg.value(metadata !{i1 %tmp_last_V_1}, i64 0, metadata !20332), !dbg !20373 ; [debug line = 281:5@100:10@126:9@102:9@81:17] [debug variable = axi.last.V]
  call void @llvm.dbg.value(metadata !{i1 %tmp_last_V_1}, i64 0, metadata !20355), !dbg !20374 ; [debug line = 82:23] [debug variable = eol]
  br label %._crit_edge.i

._crit_edge.i:                                    ; preds = %3, %2
  %axi_last_V_2_i = phi i1 [ %tmp_last_V_1, %3 ], [ %eol, %2 ] ; [#uses=2 type=i1]
  %p_Val2_s = phi i24 [ %tmp_data_V_1, %3 ], [ %axi_data_V_1_i, %2 ] ; [#uses=4 type=i24]
  call void @llvm.dbg.value(metadata !{i24 %p_Val2_s}, i64 0, metadata !20375) nounwind, !dbg !20398 ; [debug line = 1207:89@946:12@49:14@71:5@92:62] [debug variable = __Val2__]
  %tmp = trunc i24 %p_Val2_s to i8, !dbg !20399   ; [#uses=1 type=i8] [debug line = 1207:91@946:12@49:14@71:5@92:62]
  %tmp_2 = call i8 @_ssdm_op_PartSelect.i8.i24.i32.i32(i24 %p_Val2_s, i32 8, i32 15), !dbg !20399 ; [#uses=1 type=i8] [debug line = 1207:91@946:12@49:14@71:5@92:62]
  %tmp_3 = call i8 @_ssdm_op_PartSelect.i8.i24.i32.i32(i24 %p_Val2_s, i32 16, i32 23), !dbg !20399 ; [#uses=1 type=i8] [debug line = 1207:91@946:12@49:14@71:5@92:62]
  call void @llvm.dbg.value(metadata !{i8* %img_data_stream_0_V}, i64 0, metadata !20400), !dbg !20405 ; [debug line = 565:10@94:13] [debug variable = Mat<1024, 768, 4096>.data_stream[0].V]
  call void @llvm.dbg.value(metadata !{i8* %img_data_stream_1_V}, i64 0, metadata !20406), !dbg !20405 ; [debug line = 565:10@94:13] [debug variable = Mat<1024, 768, 4096>.data_stream[1].V]
  call void @llvm.dbg.value(metadata !{i8* %img_data_stream_2_V}, i64 0, metadata !20407), !dbg !20405 ; [debug line = 565:10@94:13] [debug variable = Mat<1024, 768, 4096>.data_stream[2].V]
  call void @llvm.dbg.value(metadata !{i8* %img_data_stream_0_V}, i64 0, metadata !20408), !dbg !20413 ; [debug line = 563:10@662:5@94:13] [debug variable = Mat<1024, 768, 4096>.data_stream[0].V]
  call void @llvm.dbg.value(metadata !{i8* %img_data_stream_1_V}, i64 0, metadata !20414), !dbg !20413 ; [debug line = 563:10@662:5@94:13] [debug variable = Mat<1024, 768, 4096>.data_stream[1].V]
  call void @llvm.dbg.value(metadata !{i8* %img_data_stream_2_V}, i64 0, metadata !20415), !dbg !20413 ; [debug line = 563:10@662:5@94:13] [debug variable = Mat<1024, 768, 4096>.data_stream[2].V]
  %tmp_4_i = call i32 (...)* @_ssdm_op_SpecRegionBegin([12 x i8]* @p_str23), !dbg !20416 ; [#uses=1 type=i32] [debug line = 641:6@662:5@94:13]
  call void (...)* @_ssdm_op_SpecProtocol(i32 0, [1 x i8]* @p_str4) nounwind, !dbg !20419 ; [debug line = 645:1@662:5@94:13]
  call void @llvm.dbg.value(metadata !{i8 %tmp}, i64 0, metadata !20224), !dbg !20420 ; [debug line = 145:31@106:9@648:37@662:5@94:13] [debug variable = tmp]
  call void @_ssdm_op_Write.ap_fifo.volatile.i8P(i8* %img_data_stream_0_V, i8 %tmp), !dbg !20425 ; [debug line = 146:9@106:9@648:37@662:5@94:13]
  call void @llvm.dbg.value(metadata !{i8 %tmp_2}, i64 0, metadata !20224), !dbg !20420 ; [debug line = 145:31@106:9@648:37@662:5@94:13] [debug variable = tmp]
  call void @_ssdm_op_Write.ap_fifo.volatile.i8P(i8* %img_data_stream_1_V, i8 %tmp_2), !dbg !20425 ; [debug line = 146:9@106:9@648:37@662:5@94:13]
  call void @llvm.dbg.value(metadata !{i8 %tmp_3}, i64 0, metadata !20224), !dbg !20420 ; [debug line = 145:31@106:9@648:37@662:5@94:13] [debug variable = tmp]
  call void @_ssdm_op_Write.ap_fifo.volatile.i8P(i8* %img_data_stream_2_V, i8 %tmp_3), !dbg !20425 ; [debug line = 146:9@106:9@648:37@662:5@94:13]
  %empty_27 = call i32 (...)* @_ssdm_op_SpecRegionEnd([12 x i8]* @p_str23, i32 %tmp_4_i), !dbg !20426 ; [#uses=0 type=i32] [debug line = 650:5@662:5@94:13]
  %empty_28 = call i32 (...)* @_ssdm_op_SpecRegionEnd([11 x i8]* @p_str20, i32 %tmp_2_i), !dbg !20427 ; [#uses=0 type=i32] [debug line = 95:9]
  call void @llvm.dbg.value(metadata !{i10 %t_V_1}, i64 0, metadata !20428), !dbg !20430 ; [debug line = 1908:26@73:50] [debug variable = t.V]
  call void @llvm.dbg.value(metadata !{i10 %j_V}, i64 0, metadata !20431), !dbg !20357 ; [debug line = 1879:145@1909:5@73:50] [debug variable = j.V]
  store i1 false, i1* %sof_1_i
  br label %1, !dbg !20359                        ; [debug line = 73:50]

.preheader.i:                                     ; preds = %4, %.preheader.i.preheader
  %axi_last_V_3_i = phi i1 [ %tmp_last_V_2, %4 ], [ %eol, %.preheader.i.preheader ] ; [#uses=1 type=i1]
  %axi_data_V_3_i = phi i24 [ %tmp_data_V_2, %4 ], [ %axi_data_V_1_i, %.preheader.i.preheader ] ; [#uses=1 type=i24]
  %eol_2_i = phi i1 [ %tmp_last_V_2, %4 ], [ %eol_i, %.preheader.i.preheader ] ; [#uses=1 type=i1]
  br i1 %eol_2_i, label %5, label %4, !dbg !20360 ; [debug line = 96:24]

; <label>:4                                       ; preds = %.preheader.i
  call void (...)* @_ssdm_op_SpecLoopName([18 x i8]* @p_str22) nounwind, !dbg !20433 ; [debug line = 96:38]
  %tmp_3_i = call i32 (...)* @_ssdm_op_SpecRegionBegin([18 x i8]* @p_str22), !dbg !20433 ; [#uses=1 type=i32] [debug line = 96:38]
  call void (...)* @_ssdm_op_SpecPipeline(i32 1, i32 1, i32 1, i32 0, [1 x i8]* @p_str4) nounwind, !dbg !20435 ; [debug line = 97:1]
  call void (...)* @_ssdm_op_SpecLoopTripCount(i32 0, i32 0, i32 0, [1 x i8]* @p_str4) nounwind, !dbg !20436 ; [debug line = 98:1]
  call void @llvm.dbg.value(metadata !{i24* %AXI_video_strm_V_data_V}, i64 0, metadata !20283), !dbg !20437 ; [debug line = 101:48@100:13] [debug variable = stream<ap_axiu<24, 1, 1, 1> >.V.data.V]
  call void @llvm.dbg.value(metadata !{i3* %AXI_video_strm_V_keep_V}, i64 0, metadata !20290), !dbg !20437 ; [debug line = 101:48@100:13] [debug variable = stream<ap_axiu<24, 1, 1, 1> >.V.keep.V]
  call void @llvm.dbg.value(metadata !{i3* %AXI_video_strm_V_strb_V}, i64 0, metadata !20292), !dbg !20437 ; [debug line = 101:48@100:13] [debug variable = stream<ap_axiu<24, 1, 1, 1> >.V.strb.V]
  call void @llvm.dbg.value(metadata !{i1* %AXI_video_strm_V_user_V}, i64 0, metadata !20293), !dbg !20437 ; [debug line = 101:48@100:13] [debug variable = stream<ap_axiu<24, 1, 1, 1> >.V.user.V]
  call void @llvm.dbg.value(metadata !{i1* %AXI_video_strm_V_last_V}, i64 0, metadata !20295), !dbg !20437 ; [debug line = 101:48@100:13] [debug variable = stream<ap_axiu<24, 1, 1, 1> >.V.last.V]
  call void @llvm.dbg.value(metadata !{i1* %AXI_video_strm_V_id_V}, i64 0, metadata !20296), !dbg !20437 ; [debug line = 101:48@100:13] [debug variable = stream<ap_axiu<24, 1, 1, 1> >.V.id.V]
  call void @llvm.dbg.value(metadata !{i1* %AXI_video_strm_V_dest_V}, i64 0, metadata !20297), !dbg !20437 ; [debug line = 101:48@100:13] [debug variable = stream<ap_axiu<24, 1, 1, 1> >.V.dest.V]
  call void @llvm.dbg.value(metadata !{i24* %AXI_video_strm_V_data_V}, i64 0, metadata !20298), !dbg !20439 ; [debug line = 123:48@102:9@100:13] [debug variable = stream<ap_axiu<24, 1, 1, 1> >.V.data.V]
  call void @llvm.dbg.value(metadata !{i3* %AXI_video_strm_V_keep_V}, i64 0, metadata !20304), !dbg !20439 ; [debug line = 123:48@102:9@100:13] [debug variable = stream<ap_axiu<24, 1, 1, 1> >.V.keep.V]
  call void @llvm.dbg.value(metadata !{i3* %AXI_video_strm_V_strb_V}, i64 0, metadata !20305), !dbg !20439 ; [debug line = 123:48@102:9@100:13] [debug variable = stream<ap_axiu<24, 1, 1, 1> >.V.strb.V]
  call void @llvm.dbg.value(metadata !{i1* %AXI_video_strm_V_user_V}, i64 0, metadata !20306), !dbg !20439 ; [debug line = 123:48@102:9@100:13] [debug variable = stream<ap_axiu<24, 1, 1, 1> >.V.user.V]
  call void @llvm.dbg.value(metadata !{i1* %AXI_video_strm_V_last_V}, i64 0, metadata !20307), !dbg !20439 ; [debug line = 123:48@102:9@100:13] [debug variable = stream<ap_axiu<24, 1, 1, 1> >.V.last.V]
  call void @llvm.dbg.value(metadata !{i1* %AXI_video_strm_V_id_V}, i64 0, metadata !20308), !dbg !20439 ; [debug line = 123:48@102:9@100:13] [debug variable = stream<ap_axiu<24, 1, 1, 1> >.V.id.V]
  call void @llvm.dbg.value(metadata !{i1* %AXI_video_strm_V_dest_V}, i64 0, metadata !20309), !dbg !20439 ; [debug line = 123:48@102:9@100:13] [debug variable = stream<ap_axiu<24, 1, 1, 1> >.V.dest.V]
  %empty_29 = call { i24, i3, i3, i1, i1, i1, i1 } @_ssdm_op_Read.ap_auto.volatile.i24P.i3P.i3P.i1P.i1P.i1P.i1P(i24* %AXI_video_strm_V_data_V, i3* %AXI_video_strm_V_keep_V, i3* %AXI_video_strm_V_strb_V, i1* %AXI_video_strm_V_user_V, i1* %AXI_video_strm_V_last_V, i1* %AXI_video_strm_V_id_V, i1* %AXI_video_strm_V_dest_V), !dbg !20441 ; [#uses=2 type={ i24, i3, i3, i1, i1, i1, i1 }] [debug line = 125:9@102:9@100:13]
  %tmp_data_V_2 = extractvalue { i24, i3, i3, i1, i1, i1, i1 } %empty_29, 0, !dbg !20441 ; [#uses=1 type=i24] [debug line = 125:9@102:9@100:13]
  %tmp_last_V_2 = extractvalue { i24, i3, i3, i1, i1, i1, i1 } %empty_29, 4, !dbg !20441 ; [#uses=2 type=i1] [debug line = 125:9@102:9@100:13]
  call void @llvm.dbg.value(metadata !{i24 %tmp_data_V_2}, i64 0, metadata !20312), !dbg !20441 ; [debug line = 125:9@102:9@100:13] [debug variable = tmp.data.V]
  call void @llvm.dbg.value(metadata !{i1 %tmp_last_V_2}, i64 0, metadata !20315), !dbg !20441 ; [debug line = 125:9@102:9@100:13] [debug variable = tmp.last.V]
  call void @llvm.dbg.value(metadata !{i24 %tmp_data_V_2}, i64 0, metadata !20316), !dbg !20442 ; [debug line = 281:5@100:10@126:9@102:9@100:13] [debug variable = axi.data.V]
  call void @llvm.dbg.value(metadata !{i1 %tmp_last_V_2}, i64 0, metadata !20332), !dbg !20445 ; [debug line = 281:5@100:10@126:9@102:9@100:13] [debug variable = axi.last.V]
  call void @llvm.dbg.value(metadata !{i1 %tmp_last_V_2}, i64 0, metadata !20355), !dbg !20446 ; [debug line = 101:19] [debug variable = eol]
  %empty_30 = call i32 (...)* @_ssdm_op_SpecRegionEnd([18 x i8]* @p_str22, i32 %tmp_3_i), !dbg !20447 ; [#uses=0 type=i32] [debug line = 103:9]
  br label %.preheader.i, !dbg !20447             ; [debug line = 103:9]

; <label>:5                                       ; preds = %.preheader.i
  %empty_31 = call i32 (...)* @_ssdm_op_SpecRegionEnd([12 x i8]* @p_str19, i32 %tmp_1_i), !dbg !20448 ; [#uses=0 type=i32] [debug line = 104:5]
  call void @llvm.dbg.value(metadata !{i11 %t_V}, i64 0, metadata !20428), !dbg !20449 ; [debug line = 1908:26@71:48] [debug variable = t.V]
  call void @llvm.dbg.value(metadata !{i11 %i_V}, i64 0, metadata !20450), !dbg !20339 ; [debug line = 1879:145@1909:5@71:48] [debug variable = i.V]
  br label %.preheader186.i, !dbg !20347          ; [debug line = 71:48]

.exit:                                            ; preds = %.preheader186.i
  ret void
}

!opencl.kernels = !{!0, !7, !7, !8, !14, !14, !7, !7, !20, !7, !7, !7, !7, !23, !26, !28, !28, !7, !30, !32, !32, !35, !38, !40, !7, !7, !7, !7, !26, !30, !7, !7, !42, !28, !28, !7, !45, !7, !7, !7, !48, !48, !50, !50, !52, !58, !7, !7, !61, !63, !63, !69, !70, !14, !14, !71, !73, !7, !7, !7, !48, !48, !75, !75, !77, !79, !7, !80, !83, !85, !87, !89, !91, !93, !70, !7, !7, !7, !7, !7, !7, !7, !7, !7, !7, !7, !7, !7, !7, !7, !7, !7, !8, !8, !8, !8, !8, !7, !7, !7, !7, !7, !7, !7, !7, !94, !97, !26, !28, !28, !7, !30, !35, !38, !7, !69, !28, !28, !7, !70, !14, !14, !7, !7, !40, !7, !7, !99, !7, !7, !7, !102, !104, !7, !7, !7, !7, !7, !7, !7, !7, !7}
!hls.encrypted.func = !{}
!llvm.map.gv = !{!105}

!0 = metadata !{i32 ()* @main, metadata !1, metadata !2, metadata !3, metadata !4, metadata !5, metadata !6}
!1 = metadata !{metadata !"kernel_arg_addr_space"}
!2 = metadata !{metadata !"kernel_arg_access_qual"}
!3 = metadata !{metadata !"kernel_arg_type"}
!4 = metadata !{metadata !"kernel_arg_type_qual"}
!5 = metadata !{metadata !"kernel_arg_name"}
!6 = metadata !{metadata !"reqd_work_group_size", i32 1, i32 1, i32 1}
!7 = metadata !{null, metadata !1, metadata !2, metadata !3, metadata !4, metadata !5, metadata !6}
!8 = metadata !{null, metadata !9, metadata !10, metadata !11, metadata !12, metadata !13, metadata !6}
!9 = metadata !{metadata !"kernel_arg_addr_space", i32 0, i32 0}
!10 = metadata !{metadata !"kernel_arg_access_qual", metadata !"none", metadata !"none"}
!11 = metadata !{metadata !"kernel_arg_type", metadata !"int", metadata !"int"}
!12 = metadata !{metadata !"kernel_arg_type_qual", metadata !"", metadata !""}
!13 = metadata !{metadata !"kernel_arg_name", metadata !"_rows", metadata !"_cols"}
!14 = metadata !{null, metadata !15, metadata !16, metadata !17, metadata !18, metadata !19, metadata !6}
!15 = metadata !{metadata !"kernel_arg_addr_space", i32 0}
!16 = metadata !{metadata !"kernel_arg_access_qual", metadata !"none"}
!17 = metadata !{metadata !"kernel_arg_type", metadata !"int"}
!18 = metadata !{metadata !"kernel_arg_type_qual", metadata !""}
!19 = metadata !{metadata !"kernel_arg_name", metadata !"val"}
!20 = metadata !{null, metadata !15, metadata !16, metadata !21, metadata !18, metadata !22, metadata !6}
!21 = metadata !{metadata !"kernel_arg_type", metadata !"const ap_uint<32> &"}
!22 = metadata !{metadata !"kernel_arg_name", metadata !"op2"}
!23 = metadata !{null, metadata !9, metadata !10, metadata !24, metadata !12, metadata !25, metadata !6}
!24 = metadata !{metadata !"kernel_arg_type", metadata !"stream<ap_axiu<24, 1, 1, 1> > &", metadata !"Mat<1024, 768, 4096> &"}
!25 = metadata !{metadata !"kernel_arg_name", metadata !"AXI_video_strm", metadata !"img"}
!26 = metadata !{null, metadata !15, metadata !16, metadata !17, metadata !18, metadata !27, metadata !6}
!27 = metadata !{metadata !"kernel_arg_name", metadata !""}
!28 = metadata !{null, metadata !15, metadata !16, metadata !17, metadata !18, metadata !29, metadata !6}
!29 = metadata !{metadata !"kernel_arg_name", metadata !"op"}
!30 = metadata !{null, metadata !15, metadata !16, metadata !31, metadata !18, metadata !22, metadata !6}
!31 = metadata !{metadata !"kernel_arg_type", metadata !"const ap_int_base<1, false> &"}
!32 = metadata !{null, metadata !15, metadata !16, metadata !33, metadata !18, metadata !34, metadata !6}
!33 = metadata !{metadata !"kernel_arg_type", metadata !"Scalar<((((4096) & ((512 - 1) << 11)) >> 11) + 1), typename Type<((4096) & ((1 << 11) - 1))>::name>"}
!34 = metadata !{metadata !"kernel_arg_name", metadata !"s"}
!35 = metadata !{null, metadata !15, metadata !16, metadata !36, metadata !18, metadata !37, metadata !6}
!36 = metadata !{metadata !"kernel_arg_type", metadata !"const uchar &"}
!37 = metadata !{metadata !"kernel_arg_name", metadata !"wdata"}
!38 = metadata !{null, metadata !15, metadata !16, metadata !36, metadata !18, metadata !39, metadata !6}
!39 = metadata !{metadata !"kernel_arg_name", metadata !"din"}
!40 = metadata !{null, metadata !15, metadata !16, metadata !41, metadata !18, metadata !22, metadata !6}
!41 = metadata !{metadata !"kernel_arg_type", metadata !"const ap_uint<5> &"}
!42 = metadata !{null, metadata !9, metadata !10, metadata !43, metadata !12, metadata !44, metadata !6}
!43 = metadata !{metadata !"kernel_arg_type", metadata !"const ap_int_base<5, false> &", metadata !"int"}
!44 = metadata !{metadata !"kernel_arg_name", metadata !"op", metadata !"i_op"}
!45 = metadata !{null, metadata !9, metadata !10, metadata !46, metadata !12, metadata !47, metadata !6}
!46 = metadata !{metadata !"kernel_arg_type", metadata !"const ap_int_base<5, false> &", metadata !"const ap_int_base<32, true> &"}
!47 = metadata !{metadata !"kernel_arg_name", metadata !"op", metadata !"op2"}
!48 = metadata !{null, metadata !15, metadata !16, metadata !49, metadata !18, metadata !29, metadata !6}
!49 = metadata !{metadata !"kernel_arg_type", metadata !"const ap_int_base<32, true> &"}
!50 = metadata !{null, metadata !15, metadata !16, metadata !51, metadata !18, metadata !29, metadata !6}
!51 = metadata !{metadata !"kernel_arg_type", metadata !"const ap_int_base<5, false> &"}
!52 = metadata !{null, metadata !53, metadata !54, metadata !55, metadata !56, metadata !57, metadata !6}
!53 = metadata !{metadata !"kernel_arg_addr_space", i32 0, i32 0, i32 0, i32 0}
!54 = metadata !{metadata !"kernel_arg_access_qual", metadata !"none", metadata !"none", metadata !"none", metadata !"none"}
!55 = metadata !{metadata !"kernel_arg_type", metadata !"ap_axiu<24, 1, 1, 1>", metadata !"int", metadata !"int", metadata !"uchar &"}
!56 = metadata !{metadata !"kernel_arg_type_qual", metadata !"", metadata !"", metadata !"", metadata !""}
!57 = metadata !{metadata !"kernel_arg_name", metadata !"axi", metadata !"start", metadata !"w", metadata !"val"}
!58 = metadata !{null, metadata !53, metadata !54, metadata !59, metadata !56, metadata !60, metadata !6}
!59 = metadata !{metadata !"kernel_arg_type", metadata !"ap_uint<24>", metadata !"int", metadata !"int", metadata !"uchar &"}
!60 = metadata !{metadata !"kernel_arg_name", metadata !"pix", metadata !"start", metadata !"w", metadata !"val"}
!61 = metadata !{null, metadata !9, metadata !10, metadata !11, metadata !12, metadata !62, metadata !6}
!62 = metadata !{metadata !"kernel_arg_name", metadata !"Hi", metadata !"Lo"}
!63 = metadata !{null, metadata !64, metadata !65, metadata !66, metadata !67, metadata !68, metadata !6}
!64 = metadata !{metadata !"kernel_arg_addr_space", i32 1, i32 0, i32 0}
!65 = metadata !{metadata !"kernel_arg_access_qual", metadata !"none", metadata !"none", metadata !"none"}
!66 = metadata !{metadata !"kernel_arg_type", metadata !"ap_int_base<24, false>*", metadata !"int", metadata !"int"}
!67 = metadata !{metadata !"kernel_arg_type_qual", metadata !"", metadata !"", metadata !""}
!68 = metadata !{metadata !"kernel_arg_name", metadata !"bv", metadata !"h", metadata !"l"}
!69 = metadata !{null, metadata !9, metadata !10, metadata !43, metadata !12, metadata !47, metadata !6}
!70 = metadata !{null, metadata !15, metadata !16, metadata !49, metadata !18, metadata !22, metadata !6}
!71 = metadata !{null, metadata !9, metadata !10, metadata !72, metadata !12, metadata !44, metadata !6}
!72 = metadata !{metadata !"kernel_arg_type", metadata !"const ap_int_base<32, false> &", metadata !"int"}
!73 = metadata !{null, metadata !9, metadata !10, metadata !74, metadata !12, metadata !47, metadata !6}
!74 = metadata !{metadata !"kernel_arg_type", metadata !"const ap_int_base<32, false> &", metadata !"const ap_int_base<32, true> &"}
!75 = metadata !{null, metadata !15, metadata !16, metadata !76, metadata !18, metadata !29, metadata !6}
!76 = metadata !{metadata !"kernel_arg_type", metadata !"const ap_int_base<32, false> &"}
!77 = metadata !{null, metadata !15, metadata !16, metadata !78, metadata !18, metadata !22, metadata !6}
!78 = metadata !{metadata !"kernel_arg_type", metadata !"const ap_int_base<34, true> &"}
!79 = metadata !{null, metadata !15, metadata !16, metadata !76, metadata !18, metadata !22, metadata !6}
!80 = metadata !{null, metadata !15, metadata !16, metadata !81, metadata !18, metadata !82, metadata !6}
!81 = metadata !{metadata !"kernel_arg_type", metadata !"struct ap_axiu<24, 1, 1, 1> &"}
!82 = metadata !{metadata !"kernel_arg_name", metadata !"rdata"}
!83 = metadata !{null, metadata !15, metadata !16, metadata !81, metadata !18, metadata !84, metadata !6}
!84 = metadata !{metadata !"kernel_arg_name", metadata !"dout"}
!85 = metadata !{null, metadata !15, metadata !16, metadata !86, metadata !18, metadata !27, metadata !6}
!86 = metadata !{metadata !"kernel_arg_type", metadata !"const struct ap_axiu<24, 1, 1, 1> &"}
!87 = metadata !{null, metadata !15, metadata !16, metadata !88, metadata !18, metadata !22, metadata !6}
!88 = metadata !{metadata !"kernel_arg_type", metadata !"const ap_uint<1> &"}
!89 = metadata !{null, metadata !15, metadata !16, metadata !90, metadata !18, metadata !22, metadata !6}
!90 = metadata !{metadata !"kernel_arg_type", metadata !"const ap_uint<3> &"}
!91 = metadata !{null, metadata !15, metadata !16, metadata !92, metadata !18, metadata !22, metadata !6}
!92 = metadata !{metadata !"kernel_arg_type", metadata !"const ap_uint<24> &"}
!93 = metadata !{null, metadata !9, metadata !10, metadata !72, metadata !12, metadata !47, metadata !6}
!94 = metadata !{null, metadata !9, metadata !10, metadata !95, metadata !12, metadata !96, metadata !6}
!95 = metadata !{metadata !"kernel_arg_type", metadata !"IMAGE_C3 &", metadata !"IMAGE_C1 &"}
!96 = metadata !{metadata !"kernel_arg_name", metadata !"imgColor", metadata !"imgNdg"}
!97 = metadata !{null, metadata !15, metadata !16, metadata !98, metadata !18, metadata !34, metadata !6}
!98 = metadata !{metadata !"kernel_arg_type", metadata !"Scalar<((((0) & ((512 - 1) << 11)) >> 11) + 1), typename Type<((0) & ((1 << 11) - 1))>::name>"}
!99 = metadata !{null, metadata !15, metadata !16, metadata !100, metadata !18, metadata !101, metadata !6}
!100 = metadata !{metadata !"kernel_arg_type", metadata !"uchar"}
!101 = metadata !{metadata !"kernel_arg_name", metadata !"value"}
!102 = metadata !{null, metadata !15, metadata !16, metadata !103, metadata !18, metadata !82, metadata !6}
!103 = metadata !{metadata !"kernel_arg_type", metadata !"uchar &"}
!104 = metadata !{null, metadata !15, metadata !16, metadata !103, metadata !18, metadata !84, metadata !6}
!105 = metadata !{metadata !106, [1 x i32]* @llvm_global_ctors_0}
!106 = metadata !{metadata !107}
!107 = metadata !{i32 0, i32 31, metadata !108}
!108 = metadata !{metadata !109}
!109 = metadata !{metadata !"llvm.global_ctors.0", metadata !110, metadata !"", i32 0, i32 31}
!110 = metadata !{metadata !111}
!111 = metadata !{i32 0, i32 0, i32 1}
!112 = metadata !{i32 29, i32 1, metadata !113, null}
!113 = metadata !{i32 786443, metadata !114, i32 5, i32 15, metadata !115, i32 0} ; [ DW_TAG_lexical_block ]
!114 = metadata !{i32 786478, i32 0, metadata !115, metadata !"main", metadata !"main", metadata !"", metadata !115, i32 5, metadata !116, i1 false, i1 true, i32 0, i32 0, null, i32 256, i1 false, i32 ()* @main, null, null, metadata !119, i32 5} ; [ DW_TAG_subprogram ]
!115 = metadata !{i32 786473, metadata !"project_tracking_on_soc/sources/main.cpp", metadata !"/users/florcath/vivado_hls", null} ; [ DW_TAG_file_type ]
!116 = metadata !{i32 786453, i32 0, metadata !"", i32 0, i32 0, i64 0, i64 0, i64 0, i32 0, null, metadata !117, i32 0, i32 0} ; [ DW_TAG_subroutine_type ]
!117 = metadata !{metadata !118}
!118 = metadata !{i32 786468, null, metadata !"int", null, i32 0, i64 32, i64 32, i64 0, i32 0, i32 5} ; [ DW_TAG_base_type ]
!119 = metadata !{metadata !120}
!120 = metadata !{i32 786468}                     ; [ DW_TAG_base_type ]
!121 = metadata !{metadata !122}
!122 = metadata !{i32 0, i32 31, metadata !123}
!123 = metadata !{metadata !124}
!124 = metadata !{metadata !"return", metadata !125, metadata !"int", i32 0, i32 31}
!125 = metadata !{metadata !126}
!126 = metadata !{i32 0, i32 1, i32 0}
!127 = metadata !{i32 17, i32 1, metadata !113, null}
!128 = metadata !{i32 19, i32 1, metadata !113, null}
!129 = metadata !{i32 20, i32 1, metadata !113, null}
!130 = metadata !{i32 21, i32 1, metadata !113, null}
!131 = metadata !{i32 22, i32 1, metadata !113, null}
!132 = metadata !{i32 790529, metadata !133, metadata !"video_in.V.data.V", null, i32 7, metadata !11935, i32 0, i32 0} ; [ DW_TAG_auto_variable_field ]
!133 = metadata !{i32 786688, metadata !113, metadata !"video_in", metadata !115, i32 7, metadata !134, i32 0, i32 0} ; [ DW_TAG_auto_variable ]
!134 = metadata !{i32 786454, null, metadata !"AXI_STREAM", metadata !115, i32 9, i64 0, i64 0, i64 0, i32 0, metadata !135} ; [ DW_TAG_typedef ]
!135 = metadata !{i32 786434, metadata !136, metadata !"stream<ap_axiu<24, 1, 1, 1> >", metadata !137, i32 79, i64 96, i64 32, i32 0, i32 0, null, metadata !138, i32 0, null, metadata !11933} ; [ DW_TAG_class_type ]
!136 = metadata !{i32 786489, null, metadata !"hls", metadata !137, i32 69} ; [ DW_TAG_namespace ]
!137 = metadata !{i32 786473, metadata !"/usr/lsa/apps/Xilinx/Vivado/2017.4/common/technology/autopilot/hls_stream.h", metadata !"/users/florcath/vivado_hls", null} ; [ DW_TAG_file_type ]
!138 = metadata !{metadata !139, metadata !11889, metadata !11893, metadata !11896, metadata !11901, metadata !11905, metadata !11909, metadata !11914, metadata !11918, metadata !11919, metadata !11920, metadata !11923, metadata !11926, metadata !11927, metadata !11930}
!139 = metadata !{i32 786445, metadata !135, metadata !"V", metadata !137, i32 163, i64 96, i64 32, i64 0, i32 0, metadata !140} ; [ DW_TAG_member ]
!140 = metadata !{i32 786434, null, metadata !"ap_axiu<24, 1, 1, 1>", metadata !141, i32 100, i64 96, i64 32, i32 0, i32 0, null, metadata !142, i32 0, null, metadata !11884} ; [ DW_TAG_class_type ]
!141 = metadata !{i32 786473, metadata !"/usr/lsa/apps/Xilinx/Vivado/2017.4/common/technology/autopilot/ap_axi_sdata.h", metadata !"/users/florcath/vivado_hls", null} ; [ DW_TAG_file_type ]
!142 = metadata !{metadata !143, metadata !571, metadata !2790, metadata !2791, metadata !11881, metadata !11882, metadata !11883}
!143 = metadata !{i32 786445, metadata !140, metadata !"data", metadata !141, i32 101, i64 32, i64 32, i64 0, i32 0, metadata !144} ; [ DW_TAG_member ]
!144 = metadata !{i32 786434, null, metadata !"ap_uint<24>", metadata !145, i32 183, i64 32, i64 32, i32 0, i32 0, null, metadata !146, i32 0, null, metadata !570} ; [ DW_TAG_class_type ]
!145 = metadata !{i32 786473, metadata !"/usr/lsa/apps/Xilinx/Vivado/2017.4/common/technology/autopilot/ap_int.h", metadata !"/users/florcath/vivado_hls", null} ; [ DW_TAG_file_type ]
!146 = metadata !{metadata !147, metadata !499, metadata !503, metadata !506, metadata !509, metadata !512, metadata !515, metadata !518, metadata !521, metadata !524, metadata !527, metadata !530, metadata !533, metadata !536, metadata !539, metadata !542, metadata !545, metadata !548, metadata !551, metadata !558, metadata !563, metadata !567}
!147 = metadata !{i32 786460, metadata !144, null, metadata !145, i32 0, i64 0, i64 0, i64 0, i32 0, metadata !148} ; [ DW_TAG_inheritance ]
!148 = metadata !{i32 786434, null, metadata !"ap_int_base<24, false, true>", metadata !149, i32 1453, i64 32, i64 32, i32 0, i32 0, null, metadata !150, i32 0, null, metadata !497} ; [ DW_TAG_class_type ]
!149 = metadata !{i32 786473, metadata !"/usr/lsa/apps/Xilinx/Vivado/2017.4/common/technology/autopilot/ap_int_syn.h", metadata !"/users/florcath/vivado_hls", null} ; [ DW_TAG_file_type ]
!150 = metadata !{metadata !151, metadata !170, metadata !174, metadata !182, metadata !188, metadata !191, metadata !195, metadata !199, metadata !203, metadata !207, metadata !210, metadata !214, metadata !218, metadata !222, metadata !227, metadata !232, metadata !237, metadata !241, metadata !245, metadata !251, metadata !254, metadata !258, metadata !261, metadata !264, metadata !265, metadata !269, metadata !272, metadata !275, metadata !278, metadata !281, metadata !284, metadata !287, metadata !290, metadata !293, metadata !296, metadata !299, metadata !302, metadata !312, metadata !315, metadata !318, metadata !321, metadata !324, metadata !327, metadata !330, metadata !333, metadata !336, metadata !339, metadata !342, metadata !345, metadata !348, metadata !349, metadata !353, metadata !356, metadata !357, metadata !358, metadata !359, metadata !360, metadata !361, metadata !364, metadata !365, metadata !368, metadata !369, metadata !370, metadata !371, metadata !372, metadata !373, metadata !376, metadata !377, metadata !378, metadata !381, metadata !382, metadata !385, metadata !386, metadata !390, metadata !455, metadata !456, metadata !459, metadata !460, metadata !464, metadata !465, metadata !466, metadata !467, metadata !470, metadata !471, metadata !472, metadata !473, metadata !474, metadata !475, metadata !476, metadata !477, metadata !478, metadata !479, metadata !480, metadata !481, metadata !491, metadata !494}
!151 = metadata !{i32 786460, metadata !148, null, metadata !149, i32 0, i64 0, i64 0, i64 0, i32 0, metadata !152} ; [ DW_TAG_inheritance ]
!152 = metadata !{i32 786434, null, metadata !"ssdm_int<24 + 1024 * 0, false>", metadata !153, i32 26, i64 32, i64 32, i32 0, i32 0, null, metadata !154, i32 0, null, metadata !166} ; [ DW_TAG_class_type ]
!153 = metadata !{i32 786473, metadata !"/usr/lsa/apps/Xilinx/Vivado/2017.4/common/technology/autopilot/etc/autopilot_dt.def", metadata !"/users/florcath/vivado_hls", null} ; [ DW_TAG_file_type ]
!154 = metadata !{metadata !155, metadata !157, metadata !161}
!155 = metadata !{i32 786445, metadata !152, metadata !"V", metadata !153, i32 26, i64 24, i64 32, i64 0, i32 0, metadata !156} ; [ DW_TAG_member ]
!156 = metadata !{i32 786468, null, metadata !"uint24", null, i32 0, i64 24, i64 32, i64 0, i32 0, i32 7} ; [ DW_TAG_base_type ]
!157 = metadata !{i32 786478, i32 0, metadata !152, metadata !"ssdm_int", metadata !"ssdm_int", metadata !"", metadata !153, i32 26, metadata !158, i1 false, i1 false, i32 0, i32 0, null, i32 256, i1 false, null, null, i32 0, metadata !119, i32 26} ; [ DW_TAG_subprogram ]
!158 = metadata !{i32 786453, i32 0, metadata !"", i32 0, i32 0, i64 0, i64 0, i64 0, i32 0, null, metadata !159, i32 0, i32 0} ; [ DW_TAG_subroutine_type ]
!159 = metadata !{null, metadata !160}
!160 = metadata !{i32 786447, i32 0, metadata !"", i32 0, i32 0, i64 64, i64 64, i64 0, i32 64, metadata !152} ; [ DW_TAG_pointer_type ]
!161 = metadata !{i32 786478, i32 0, metadata !152, metadata !"ssdm_int", metadata !"ssdm_int", metadata !"", metadata !153, i32 26, metadata !162, i1 false, i1 false, i32 0, i32 0, null, i32 320, i1 false, null, null, i32 0, metadata !119, i32 26} ; [ DW_TAG_subprogram ]
!162 = metadata !{i32 786453, i32 0, metadata !"", i32 0, i32 0, i64 0, i64 0, i64 0, i32 0, null, metadata !163, i32 0, i32 0} ; [ DW_TAG_subroutine_type ]
!163 = metadata !{null, metadata !160, metadata !164}
!164 = metadata !{i32 786448, null, null, null, i32 0, i64 0, i64 0, i64 0, i32 0, metadata !165} ; [ DW_TAG_reference_type ]
!165 = metadata !{i32 786470, null, metadata !"", null, i32 0, i64 0, i64 0, i64 0, i32 0, metadata !152} ; [ DW_TAG_const_type ]
!166 = metadata !{metadata !167, metadata !168}
!167 = metadata !{i32 786480, null, metadata !"_AP_N", metadata !118, i64 24, null, i32 0, i32 0} ; [ DW_TAG_template_value_parameter ]
!168 = metadata !{i32 786480, null, metadata !"_AP_S", metadata !169, i64 0, null, i32 0, i32 0} ; [ DW_TAG_template_value_parameter ]
!169 = metadata !{i32 786468, null, metadata !"bool", null, i32 0, i64 8, i64 8, i64 0, i32 0, i32 2} ; [ DW_TAG_base_type ]
!170 = metadata !{i32 786478, i32 0, metadata !148, metadata !"ap_int_base", metadata !"ap_int_base", metadata !"", metadata !149, i32 1494, metadata !171, i1 false, i1 false, i32 0, i32 0, null, i32 256, i1 false, null, null, i32 0, metadata !119, i32 1494} ; [ DW_TAG_subprogram ]
!171 = metadata !{i32 786453, i32 0, metadata !"", i32 0, i32 0, i64 0, i64 0, i64 0, i32 0, null, metadata !172, i32 0, i32 0} ; [ DW_TAG_subroutine_type ]
!172 = metadata !{null, metadata !173}
!173 = metadata !{i32 786447, i32 0, metadata !"", i32 0, i32 0, i64 64, i64 64, i64 0, i32 64, metadata !148} ; [ DW_TAG_pointer_type ]
!174 = metadata !{i32 786478, i32 0, metadata !148, metadata !"ap_int_base<24, false>", metadata !"ap_int_base<24, false>", metadata !"", metadata !149, i32 1506, metadata !175, i1 false, i1 false, i32 0, i32 0, null, i32 256, i1 false, null, metadata !179, i32 0, metadata !119, i32 1506} ; [ DW_TAG_subprogram ]
!175 = metadata !{i32 786453, i32 0, metadata !"", i32 0, i32 0, i64 0, i64 0, i64 0, i32 0, null, metadata !176, i32 0, i32 0} ; [ DW_TAG_subroutine_type ]
!176 = metadata !{null, metadata !173, metadata !177}
!177 = metadata !{i32 786448, null, null, null, i32 0, i64 0, i64 0, i64 0, i32 0, metadata !178} ; [ DW_TAG_reference_type ]
!178 = metadata !{i32 786470, null, metadata !"", null, i32 0, i64 0, i64 0, i64 0, i32 0, metadata !148} ; [ DW_TAG_const_type ]
!179 = metadata !{metadata !180, metadata !181}
!180 = metadata !{i32 786480, null, metadata !"_AP_W2", metadata !118, i64 24, null, i32 0, i32 0} ; [ DW_TAG_template_value_parameter ]
!181 = metadata !{i32 786480, null, metadata !"_AP_S2", metadata !169, i64 0, null, i32 0, i32 0} ; [ DW_TAG_template_value_parameter ]
!182 = metadata !{i32 786478, i32 0, metadata !148, metadata !"ap_int_base<24, false>", metadata !"ap_int_base<24, false>", metadata !"", metadata !149, i32 1509, metadata !183, i1 false, i1 false, i32 0, i32 0, null, i32 256, i1 false, null, metadata !179, i32 0, metadata !119, i32 1509} ; [ DW_TAG_subprogram ]
!183 = metadata !{i32 786453, i32 0, metadata !"", i32 0, i32 0, i64 0, i64 0, i64 0, i32 0, null, metadata !184, i32 0, i32 0} ; [ DW_TAG_subroutine_type ]
!184 = metadata !{null, metadata !173, metadata !185}
!185 = metadata !{i32 786448, null, null, null, i32 0, i64 0, i64 0, i64 0, i32 0, metadata !186} ; [ DW_TAG_reference_type ]
!186 = metadata !{i32 786470, null, metadata !"", null, i32 0, i64 0, i64 0, i64 0, i32 0, metadata !187} ; [ DW_TAG_const_type ]
!187 = metadata !{i32 786485, null, metadata !"", null, i32 0, i64 0, i64 0, i64 0, i32 0, metadata !148} ; [ DW_TAG_volatile_type ]
!188 = metadata !{i32 786478, i32 0, metadata !148, metadata !"ap_int_base", metadata !"ap_int_base", metadata !"", metadata !149, i32 1516, metadata !189, i1 false, i1 false, i32 0, i32 0, null, i32 384, i1 false, null, null, i32 0, metadata !119, i32 1516} ; [ DW_TAG_subprogram ]
!189 = metadata !{i32 786453, i32 0, metadata !"", i32 0, i32 0, i64 0, i64 0, i64 0, i32 0, null, metadata !190, i32 0, i32 0} ; [ DW_TAG_subroutine_type ]
!190 = metadata !{null, metadata !173, metadata !169}
!191 = metadata !{i32 786478, i32 0, metadata !148, metadata !"ap_int_base", metadata !"ap_int_base", metadata !"", metadata !149, i32 1517, metadata !192, i1 false, i1 false, i32 0, i32 0, null, i32 384, i1 false, null, null, i32 0, metadata !119, i32 1517} ; [ DW_TAG_subprogram ]
!192 = metadata !{i32 786453, i32 0, metadata !"", i32 0, i32 0, i64 0, i64 0, i64 0, i32 0, null, metadata !193, i32 0, i32 0} ; [ DW_TAG_subroutine_type ]
!193 = metadata !{null, metadata !173, metadata !194}
!194 = metadata !{i32 786468, null, metadata !"signed char", null, i32 0, i64 8, i64 8, i64 0, i32 0, i32 6} ; [ DW_TAG_base_type ]
!195 = metadata !{i32 786478, i32 0, metadata !148, metadata !"ap_int_base", metadata !"ap_int_base", metadata !"", metadata !149, i32 1518, metadata !196, i1 false, i1 false, i32 0, i32 0, null, i32 384, i1 false, null, null, i32 0, metadata !119, i32 1518} ; [ DW_TAG_subprogram ]
!196 = metadata !{i32 786453, i32 0, metadata !"", i32 0, i32 0, i64 0, i64 0, i64 0, i32 0, null, metadata !197, i32 0, i32 0} ; [ DW_TAG_subroutine_type ]
!197 = metadata !{null, metadata !173, metadata !198}
!198 = metadata !{i32 786468, null, metadata !"unsigned char", null, i32 0, i64 8, i64 8, i64 0, i32 0, i32 8} ; [ DW_TAG_base_type ]
!199 = metadata !{i32 786478, i32 0, metadata !148, metadata !"ap_int_base", metadata !"ap_int_base", metadata !"", metadata !149, i32 1519, metadata !200, i1 false, i1 false, i32 0, i32 0, null, i32 384, i1 false, null, null, i32 0, metadata !119, i32 1519} ; [ DW_TAG_subprogram ]
!200 = metadata !{i32 786453, i32 0, metadata !"", i32 0, i32 0, i64 0, i64 0, i64 0, i32 0, null, metadata !201, i32 0, i32 0} ; [ DW_TAG_subroutine_type ]
!201 = metadata !{null, metadata !173, metadata !202}
!202 = metadata !{i32 786468, null, metadata !"short", null, i32 0, i64 16, i64 16, i64 0, i32 0, i32 5} ; [ DW_TAG_base_type ]
!203 = metadata !{i32 786478, i32 0, metadata !148, metadata !"ap_int_base", metadata !"ap_int_base", metadata !"", metadata !149, i32 1520, metadata !204, i1 false, i1 false, i32 0, i32 0, null, i32 384, i1 false, null, null, i32 0, metadata !119, i32 1520} ; [ DW_TAG_subprogram ]
!204 = metadata !{i32 786453, i32 0, metadata !"", i32 0, i32 0, i64 0, i64 0, i64 0, i32 0, null, metadata !205, i32 0, i32 0} ; [ DW_TAG_subroutine_type ]
!205 = metadata !{null, metadata !173, metadata !206}
!206 = metadata !{i32 786468, null, metadata !"unsigned short", null, i32 0, i64 16, i64 16, i64 0, i32 0, i32 7} ; [ DW_TAG_base_type ]
!207 = metadata !{i32 786478, i32 0, metadata !148, metadata !"ap_int_base", metadata !"ap_int_base", metadata !"", metadata !149, i32 1521, metadata !208, i1 false, i1 false, i32 0, i32 0, null, i32 384, i1 false, null, null, i32 0, metadata !119, i32 1521} ; [ DW_TAG_subprogram ]
!208 = metadata !{i32 786453, i32 0, metadata !"", i32 0, i32 0, i64 0, i64 0, i64 0, i32 0, null, metadata !209, i32 0, i32 0} ; [ DW_TAG_subroutine_type ]
!209 = metadata !{null, metadata !173, metadata !118}
!210 = metadata !{i32 786478, i32 0, metadata !148, metadata !"ap_int_base", metadata !"ap_int_base", metadata !"", metadata !149, i32 1522, metadata !211, i1 false, i1 false, i32 0, i32 0, null, i32 384, i1 false, null, null, i32 0, metadata !119, i32 1522} ; [ DW_TAG_subprogram ]
!211 = metadata !{i32 786453, i32 0, metadata !"", i32 0, i32 0, i64 0, i64 0, i64 0, i32 0, null, metadata !212, i32 0, i32 0} ; [ DW_TAG_subroutine_type ]
!212 = metadata !{null, metadata !173, metadata !213}
!213 = metadata !{i32 786468, null, metadata !"unsigned int", null, i32 0, i64 32, i64 32, i64 0, i32 0, i32 7} ; [ DW_TAG_base_type ]
!214 = metadata !{i32 786478, i32 0, metadata !148, metadata !"ap_int_base", metadata !"ap_int_base", metadata !"", metadata !149, i32 1523, metadata !215, i1 false, i1 false, i32 0, i32 0, null, i32 384, i1 false, null, null, i32 0, metadata !119, i32 1523} ; [ DW_TAG_subprogram ]
!215 = metadata !{i32 786453, i32 0, metadata !"", i32 0, i32 0, i64 0, i64 0, i64 0, i32 0, null, metadata !216, i32 0, i32 0} ; [ DW_TAG_subroutine_type ]
!216 = metadata !{null, metadata !173, metadata !217}
!217 = metadata !{i32 786468, null, metadata !"long int", null, i32 0, i64 64, i64 64, i64 0, i32 0, i32 5} ; [ DW_TAG_base_type ]
!218 = metadata !{i32 786478, i32 0, metadata !148, metadata !"ap_int_base", metadata !"ap_int_base", metadata !"", metadata !149, i32 1524, metadata !219, i1 false, i1 false, i32 0, i32 0, null, i32 384, i1 false, null, null, i32 0, metadata !119, i32 1524} ; [ DW_TAG_subprogram ]
!219 = metadata !{i32 786453, i32 0, metadata !"", i32 0, i32 0, i64 0, i64 0, i64 0, i32 0, null, metadata !220, i32 0, i32 0} ; [ DW_TAG_subroutine_type ]
!220 = metadata !{null, metadata !173, metadata !221}
!221 = metadata !{i32 786468, null, metadata !"long unsigned int", null, i32 0, i64 64, i64 64, i64 0, i32 0, i32 7} ; [ DW_TAG_base_type ]
!222 = metadata !{i32 786478, i32 0, metadata !148, metadata !"ap_int_base", metadata !"ap_int_base", metadata !"", metadata !149, i32 1525, metadata !223, i1 false, i1 false, i32 0, i32 0, null, i32 384, i1 false, null, null, i32 0, metadata !119, i32 1525} ; [ DW_TAG_subprogram ]
!223 = metadata !{i32 786453, i32 0, metadata !"", i32 0, i32 0, i64 0, i64 0, i64 0, i32 0, null, metadata !224, i32 0, i32 0} ; [ DW_TAG_subroutine_type ]
!224 = metadata !{null, metadata !173, metadata !225}
!225 = metadata !{i32 786454, null, metadata !"ap_slong", metadata !149, i32 112, i64 0, i64 0, i64 0, i32 0, metadata !226} ; [ DW_TAG_typedef ]
!226 = metadata !{i32 786468, null, metadata !"long long int", null, i32 0, i64 64, i64 64, i64 0, i32 0, i32 5} ; [ DW_TAG_base_type ]
!227 = metadata !{i32 786478, i32 0, metadata !148, metadata !"ap_int_base", metadata !"ap_int_base", metadata !"", metadata !149, i32 1526, metadata !228, i1 false, i1 false, i32 0, i32 0, null, i32 384, i1 false, null, null, i32 0, metadata !119, i32 1526} ; [ DW_TAG_subprogram ]
!228 = metadata !{i32 786453, i32 0, metadata !"", i32 0, i32 0, i64 0, i64 0, i64 0, i32 0, null, metadata !229, i32 0, i32 0} ; [ DW_TAG_subroutine_type ]
!229 = metadata !{null, metadata !173, metadata !230}
!230 = metadata !{i32 786454, null, metadata !"ap_ulong", metadata !149, i32 111, i64 0, i64 0, i64 0, i32 0, metadata !231} ; [ DW_TAG_typedef ]
!231 = metadata !{i32 786468, null, metadata !"long long unsigned int", null, i32 0, i64 64, i64 64, i64 0, i32 0, i32 7} ; [ DW_TAG_base_type ]
!232 = metadata !{i32 786478, i32 0, metadata !148, metadata !"ap_int_base", metadata !"ap_int_base", metadata !"", metadata !149, i32 1527, metadata !233, i1 false, i1 false, i32 0, i32 0, null, i32 384, i1 false, null, null, i32 0, metadata !119, i32 1527} ; [ DW_TAG_subprogram ]
!233 = metadata !{i32 786453, i32 0, metadata !"", i32 0, i32 0, i64 0, i64 0, i64 0, i32 0, null, metadata !234, i32 0, i32 0} ; [ DW_TAG_subroutine_type ]
!234 = metadata !{null, metadata !173, metadata !235}
!235 = metadata !{i32 786454, null, metadata !"half", metadata !149, i32 54, i64 0, i64 0, i64 0, i32 0, metadata !236} ; [ DW_TAG_typedef ]
!236 = metadata !{i32 786468, null, metadata !"half", null, i32 0, i64 16, i64 16, i64 0, i32 0, i32 4} ; [ DW_TAG_base_type ]
!237 = metadata !{i32 786478, i32 0, metadata !148, metadata !"ap_int_base", metadata !"ap_int_base", metadata !"", metadata !149, i32 1528, metadata !238, i1 false, i1 false, i32 0, i32 0, null, i32 384, i1 false, null, null, i32 0, metadata !119, i32 1528} ; [ DW_TAG_subprogram ]
!238 = metadata !{i32 786453, i32 0, metadata !"", i32 0, i32 0, i64 0, i64 0, i64 0, i32 0, null, metadata !239, i32 0, i32 0} ; [ DW_TAG_subroutine_type ]
!239 = metadata !{null, metadata !173, metadata !240}
!240 = metadata !{i32 786468, null, metadata !"float", null, i32 0, i64 32, i64 32, i64 0, i32 0, i32 4} ; [ DW_TAG_base_type ]
!241 = metadata !{i32 786478, i32 0, metadata !148, metadata !"ap_int_base", metadata !"ap_int_base", metadata !"", metadata !149, i32 1529, metadata !242, i1 false, i1 false, i32 0, i32 0, null, i32 384, i1 false, null, null, i32 0, metadata !119, i32 1529} ; [ DW_TAG_subprogram ]
!242 = metadata !{i32 786453, i32 0, metadata !"", i32 0, i32 0, i64 0, i64 0, i64 0, i32 0, null, metadata !243, i32 0, i32 0} ; [ DW_TAG_subroutine_type ]
!243 = metadata !{null, metadata !173, metadata !244}
!244 = metadata !{i32 786468, null, metadata !"double", null, i32 0, i64 64, i64 64, i64 0, i32 0, i32 4} ; [ DW_TAG_base_type ]
!245 = metadata !{i32 786478, i32 0, metadata !148, metadata !"ap_int_base", metadata !"ap_int_base", metadata !"", metadata !149, i32 1556, metadata !246, i1 false, i1 false, i32 0, i32 0, null, i32 256, i1 false, null, null, i32 0, metadata !119, i32 1556} ; [ DW_TAG_subprogram ]
!246 = metadata !{i32 786453, i32 0, metadata !"", i32 0, i32 0, i64 0, i64 0, i64 0, i32 0, null, metadata !247, i32 0, i32 0} ; [ DW_TAG_subroutine_type ]
!247 = metadata !{null, metadata !173, metadata !248}
!248 = metadata !{i32 786447, null, metadata !"", null, i32 0, i64 64, i64 64, i64 0, i32 0, metadata !249} ; [ DW_TAG_pointer_type ]
!249 = metadata !{i32 786470, null, metadata !"", null, i32 0, i64 0, i64 0, i64 0, i32 0, metadata !250} ; [ DW_TAG_const_type ]
!250 = metadata !{i32 786468, null, metadata !"char", null, i32 0, i64 8, i64 8, i64 0, i32 0, i32 6} ; [ DW_TAG_base_type ]
!251 = metadata !{i32 786478, i32 0, metadata !148, metadata !"ap_int_base", metadata !"ap_int_base", metadata !"", metadata !149, i32 1563, metadata !252, i1 false, i1 false, i32 0, i32 0, null, i32 256, i1 false, null, null, i32 0, metadata !119, i32 1563} ; [ DW_TAG_subprogram ]
!252 = metadata !{i32 786453, i32 0, metadata !"", i32 0, i32 0, i64 0, i64 0, i64 0, i32 0, null, metadata !253, i32 0, i32 0} ; [ DW_TAG_subroutine_type ]
!253 = metadata !{null, metadata !173, metadata !248, metadata !194}
!254 = metadata !{i32 786478, i32 0, metadata !148, metadata !"read", metadata !"read", metadata !"_ZNV11ap_int_baseILi24ELb0ELb1EE4readEv", metadata !149, i32 1584, metadata !255, i1 false, i1 false, i32 0, i32 0, null, i32 256, i1 false, null, null, i32 0, metadata !119, i32 1584} ; [ DW_TAG_subprogram ]
!255 = metadata !{i32 786453, i32 0, metadata !"", i32 0, i32 0, i64 0, i64 0, i64 0, i32 0, null, metadata !256, i32 0, i32 0} ; [ DW_TAG_subroutine_type ]
!256 = metadata !{metadata !148, metadata !257}
!257 = metadata !{i32 786447, i32 0, metadata !"", i32 0, i32 0, i64 64, i64 64, i64 0, i32 64, metadata !187} ; [ DW_TAG_pointer_type ]
!258 = metadata !{i32 786478, i32 0, metadata !148, metadata !"write", metadata !"write", metadata !"_ZNV11ap_int_baseILi24ELb0ELb1EE5writeERKS0_", metadata !149, i32 1590, metadata !259, i1 false, i1 false, i32 0, i32 0, null, i32 256, i1 false, null, null, i32 0, metadata !119, i32 1590} ; [ DW_TAG_subprogram ]
!259 = metadata !{i32 786453, i32 0, metadata !"", i32 0, i32 0, i64 0, i64 0, i64 0, i32 0, null, metadata !260, i32 0, i32 0} ; [ DW_TAG_subroutine_type ]
!260 = metadata !{null, metadata !257, metadata !177}
!261 = metadata !{i32 786478, i32 0, metadata !148, metadata !"operator=", metadata !"operator=", metadata !"_ZNV11ap_int_baseILi24ELb0ELb1EEaSERVKS0_", metadata !149, i32 1602, metadata !262, i1 false, i1 false, i32 0, i32 0, null, i32 256, i1 false, null, null, i32 0, metadata !119, i32 1602} ; [ DW_TAG_subprogram ]
!262 = metadata !{i32 786453, i32 0, metadata !"", i32 0, i32 0, i64 0, i64 0, i64 0, i32 0, null, metadata !263, i32 0, i32 0} ; [ DW_TAG_subroutine_type ]
!263 = metadata !{null, metadata !257, metadata !185}
!264 = metadata !{i32 786478, i32 0, metadata !148, metadata !"operator=", metadata !"operator=", metadata !"_ZNV11ap_int_baseILi24ELb0ELb1EEaSERKS0_", metadata !149, i32 1611, metadata !259, i1 false, i1 false, i32 0, i32 0, null, i32 256, i1 false, null, null, i32 0, metadata !119, i32 1611} ; [ DW_TAG_subprogram ]
!265 = metadata !{i32 786478, i32 0, metadata !148, metadata !"operator=", metadata !"operator=", metadata !"_ZN11ap_int_baseILi24ELb0ELb1EEaSERVKS0_", metadata !149, i32 1634, metadata !266, i1 false, i1 false, i32 0, i32 0, null, i32 256, i1 false, null, null, i32 0, metadata !119, i32 1634} ; [ DW_TAG_subprogram ]
!266 = metadata !{i32 786453, i32 0, metadata !"", i32 0, i32 0, i64 0, i64 0, i64 0, i32 0, null, metadata !267, i32 0, i32 0} ; [ DW_TAG_subroutine_type ]
!267 = metadata !{metadata !268, metadata !173, metadata !185}
!268 = metadata !{i32 786448, null, null, null, i32 0, i64 0, i64 0, i64 0, i32 0, metadata !148} ; [ DW_TAG_reference_type ]
!269 = metadata !{i32 786478, i32 0, metadata !148, metadata !"operator=", metadata !"operator=", metadata !"_ZN11ap_int_baseILi24ELb0ELb1EEaSERKS0_", metadata !149, i32 1639, metadata !270, i1 false, i1 false, i32 0, i32 0, null, i32 256, i1 false, null, null, i32 0, metadata !119, i32 1639} ; [ DW_TAG_subprogram ]
!270 = metadata !{i32 786453, i32 0, metadata !"", i32 0, i32 0, i64 0, i64 0, i64 0, i32 0, null, metadata !271, i32 0, i32 0} ; [ DW_TAG_subroutine_type ]
!271 = metadata !{metadata !268, metadata !173, metadata !177}
!272 = metadata !{i32 786478, i32 0, metadata !148, metadata !"operator=", metadata !"operator=", metadata !"_ZN11ap_int_baseILi24ELb0ELb1EEaSEPKc", metadata !149, i32 1643, metadata !273, i1 false, i1 false, i32 0, i32 0, null, i32 256, i1 false, null, null, i32 0, metadata !119, i32 1643} ; [ DW_TAG_subprogram ]
!273 = metadata !{i32 786453, i32 0, metadata !"", i32 0, i32 0, i64 0, i64 0, i64 0, i32 0, null, metadata !274, i32 0, i32 0} ; [ DW_TAG_subroutine_type ]
!274 = metadata !{metadata !268, metadata !173, metadata !248}
!275 = metadata !{i32 786478, i32 0, metadata !148, metadata !"set", metadata !"set", metadata !"_ZN11ap_int_baseILi24ELb0ELb1EE3setEPKca", metadata !149, i32 1651, metadata !276, i1 false, i1 false, i32 0, i32 0, null, i32 256, i1 false, null, null, i32 0, metadata !119, i32 1651} ; [ DW_TAG_subprogram ]
!276 = metadata !{i32 786453, i32 0, metadata !"", i32 0, i32 0, i64 0, i64 0, i64 0, i32 0, null, metadata !277, i32 0, i32 0} ; [ DW_TAG_subroutine_type ]
!277 = metadata !{metadata !268, metadata !173, metadata !248, metadata !194}
!278 = metadata !{i32 786478, i32 0, metadata !148, metadata !"operator=", metadata !"operator=", metadata !"_ZN11ap_int_baseILi24ELb0ELb1EEaSEa", metadata !149, i32 1665, metadata !279, i1 false, i1 false, i32 0, i32 0, null, i32 256, i1 false, null, null, i32 0, metadata !119, i32 1665} ; [ DW_TAG_subprogram ]
!279 = metadata !{i32 786453, i32 0, metadata !"", i32 0, i32 0, i64 0, i64 0, i64 0, i32 0, null, metadata !280, i32 0, i32 0} ; [ DW_TAG_subroutine_type ]
!280 = metadata !{metadata !268, metadata !173, metadata !194}
!281 = metadata !{i32 786478, i32 0, metadata !148, metadata !"operator=", metadata !"operator=", metadata !"_ZN11ap_int_baseILi24ELb0ELb1EEaSEh", metadata !149, i32 1666, metadata !282, i1 false, i1 false, i32 0, i32 0, null, i32 256, i1 false, null, null, i32 0, metadata !119, i32 1666} ; [ DW_TAG_subprogram ]
!282 = metadata !{i32 786453, i32 0, metadata !"", i32 0, i32 0, i64 0, i64 0, i64 0, i32 0, null, metadata !283, i32 0, i32 0} ; [ DW_TAG_subroutine_type ]
!283 = metadata !{metadata !268, metadata !173, metadata !198}
!284 = metadata !{i32 786478, i32 0, metadata !148, metadata !"operator=", metadata !"operator=", metadata !"_ZN11ap_int_baseILi24ELb0ELb1EEaSEs", metadata !149, i32 1667, metadata !285, i1 false, i1 false, i32 0, i32 0, null, i32 256, i1 false, null, null, i32 0, metadata !119, i32 1667} ; [ DW_TAG_subprogram ]
!285 = metadata !{i32 786453, i32 0, metadata !"", i32 0, i32 0, i64 0, i64 0, i64 0, i32 0, null, metadata !286, i32 0, i32 0} ; [ DW_TAG_subroutine_type ]
!286 = metadata !{metadata !268, metadata !173, metadata !202}
!287 = metadata !{i32 786478, i32 0, metadata !148, metadata !"operator=", metadata !"operator=", metadata !"_ZN11ap_int_baseILi24ELb0ELb1EEaSEt", metadata !149, i32 1668, metadata !288, i1 false, i1 false, i32 0, i32 0, null, i32 256, i1 false, null, null, i32 0, metadata !119, i32 1668} ; [ DW_TAG_subprogram ]
!288 = metadata !{i32 786453, i32 0, metadata !"", i32 0, i32 0, i64 0, i64 0, i64 0, i32 0, null, metadata !289, i32 0, i32 0} ; [ DW_TAG_subroutine_type ]
!289 = metadata !{metadata !268, metadata !173, metadata !206}
!290 = metadata !{i32 786478, i32 0, metadata !148, metadata !"operator=", metadata !"operator=", metadata !"_ZN11ap_int_baseILi24ELb0ELb1EEaSEi", metadata !149, i32 1669, metadata !291, i1 false, i1 false, i32 0, i32 0, null, i32 256, i1 false, null, null, i32 0, metadata !119, i32 1669} ; [ DW_TAG_subprogram ]
!291 = metadata !{i32 786453, i32 0, metadata !"", i32 0, i32 0, i64 0, i64 0, i64 0, i32 0, null, metadata !292, i32 0, i32 0} ; [ DW_TAG_subroutine_type ]
!292 = metadata !{metadata !268, metadata !173, metadata !118}
!293 = metadata !{i32 786478, i32 0, metadata !148, metadata !"operator=", metadata !"operator=", metadata !"_ZN11ap_int_baseILi24ELb0ELb1EEaSEj", metadata !149, i32 1670, metadata !294, i1 false, i1 false, i32 0, i32 0, null, i32 256, i1 false, null, null, i32 0, metadata !119, i32 1670} ; [ DW_TAG_subprogram ]
!294 = metadata !{i32 786453, i32 0, metadata !"", i32 0, i32 0, i64 0, i64 0, i64 0, i32 0, null, metadata !295, i32 0, i32 0} ; [ DW_TAG_subroutine_type ]
!295 = metadata !{metadata !268, metadata !173, metadata !213}
!296 = metadata !{i32 786478, i32 0, metadata !148, metadata !"operator=", metadata !"operator=", metadata !"_ZN11ap_int_baseILi24ELb0ELb1EEaSEx", metadata !149, i32 1671, metadata !297, i1 false, i1 false, i32 0, i32 0, null, i32 256, i1 false, null, null, i32 0, metadata !119, i32 1671} ; [ DW_TAG_subprogram ]
!297 = metadata !{i32 786453, i32 0, metadata !"", i32 0, i32 0, i64 0, i64 0, i64 0, i32 0, null, metadata !298, i32 0, i32 0} ; [ DW_TAG_subroutine_type ]
!298 = metadata !{metadata !268, metadata !173, metadata !225}
!299 = metadata !{i32 786478, i32 0, metadata !148, metadata !"operator=", metadata !"operator=", metadata !"_ZN11ap_int_baseILi24ELb0ELb1EEaSEy", metadata !149, i32 1672, metadata !300, i1 false, i1 false, i32 0, i32 0, null, i32 256, i1 false, null, null, i32 0, metadata !119, i32 1672} ; [ DW_TAG_subprogram ]
!300 = metadata !{i32 786453, i32 0, metadata !"", i32 0, i32 0, i64 0, i64 0, i64 0, i32 0, null, metadata !301, i32 0, i32 0} ; [ DW_TAG_subroutine_type ]
!301 = metadata !{metadata !268, metadata !173, metadata !230}
!302 = metadata !{i32 786478, i32 0, metadata !148, metadata !"operator unsigned int", metadata !"operator unsigned int", metadata !"_ZNK11ap_int_baseILi24ELb0ELb1EEcvjEv", metadata !149, i32 1710, metadata !303, i1 false, i1 false, i32 0, i32 0, null, i32 256, i1 false, null, null, i32 0, metadata !119, i32 1710} ; [ DW_TAG_subprogram ]
!303 = metadata !{i32 786453, i32 0, metadata !"", i32 0, i32 0, i64 0, i64 0, i64 0, i32 0, null, metadata !304, i32 0, i32 0} ; [ DW_TAG_subroutine_type ]
!304 = metadata !{metadata !305, metadata !311}
!305 = metadata !{i32 786454, metadata !148, metadata !"RetType", metadata !149, i32 1458, i64 0, i64 0, i64 0, i32 0, metadata !306} ; [ DW_TAG_typedef ]
!306 = metadata !{i32 786454, metadata !307, metadata !"Type", metadata !149, i32 1438, i64 0, i64 0, i64 0, i32 0, metadata !213} ; [ DW_TAG_typedef ]
!307 = metadata !{i32 786434, null, metadata !"retval<3, false>", metadata !149, i32 1437, i64 8, i64 8, i32 0, i32 0, null, metadata !308, i32 0, null, metadata !309} ; [ DW_TAG_class_type ]
!308 = metadata !{i32 0}
!309 = metadata !{metadata !310, metadata !168}
!310 = metadata !{i32 786480, null, metadata !"_AP_N", metadata !118, i64 3, null, i32 0, i32 0} ; [ DW_TAG_template_value_parameter ]
!311 = metadata !{i32 786447, i32 0, metadata !"", i32 0, i32 0, i64 64, i64 64, i64 0, i32 64, metadata !178} ; [ DW_TAG_pointer_type ]
!312 = metadata !{i32 786478, i32 0, metadata !148, metadata !"to_bool", metadata !"to_bool", metadata !"_ZNK11ap_int_baseILi24ELb0ELb1EE7to_boolEv", metadata !149, i32 1716, metadata !313, i1 false, i1 false, i32 0, i32 0, null, i32 256, i1 false, null, null, i32 0, metadata !119, i32 1716} ; [ DW_TAG_subprogram ]
!313 = metadata !{i32 786453, i32 0, metadata !"", i32 0, i32 0, i64 0, i64 0, i64 0, i32 0, null, metadata !314, i32 0, i32 0} ; [ DW_TAG_subroutine_type ]
!314 = metadata !{metadata !169, metadata !311}
!315 = metadata !{i32 786478, i32 0, metadata !148, metadata !"to_uchar", metadata !"to_uchar", metadata !"_ZNK11ap_int_baseILi24ELb0ELb1EE8to_ucharEv", metadata !149, i32 1717, metadata !316, i1 false, i1 false, i32 0, i32 0, null, i32 256, i1 false, null, null, i32 0, metadata !119, i32 1717} ; [ DW_TAG_subprogram ]
!316 = metadata !{i32 786453, i32 0, metadata !"", i32 0, i32 0, i64 0, i64 0, i64 0, i32 0, null, metadata !317, i32 0, i32 0} ; [ DW_TAG_subroutine_type ]
!317 = metadata !{metadata !198, metadata !311}
!318 = metadata !{i32 786478, i32 0, metadata !148, metadata !"to_char", metadata !"to_char", metadata !"_ZNK11ap_int_baseILi24ELb0ELb1EE7to_charEv", metadata !149, i32 1718, metadata !319, i1 false, i1 false, i32 0, i32 0, null, i32 256, i1 false, null, null, i32 0, metadata !119, i32 1718} ; [ DW_TAG_subprogram ]
!319 = metadata !{i32 786453, i32 0, metadata !"", i32 0, i32 0, i64 0, i64 0, i64 0, i32 0, null, metadata !320, i32 0, i32 0} ; [ DW_TAG_subroutine_type ]
!320 = metadata !{metadata !194, metadata !311}
!321 = metadata !{i32 786478, i32 0, metadata !148, metadata !"to_ushort", metadata !"to_ushort", metadata !"_ZNK11ap_int_baseILi24ELb0ELb1EE9to_ushortEv", metadata !149, i32 1719, metadata !322, i1 false, i1 false, i32 0, i32 0, null, i32 256, i1 false, null, null, i32 0, metadata !119, i32 1719} ; [ DW_TAG_subprogram ]
!322 = metadata !{i32 786453, i32 0, metadata !"", i32 0, i32 0, i64 0, i64 0, i64 0, i32 0, null, metadata !323, i32 0, i32 0} ; [ DW_TAG_subroutine_type ]
!323 = metadata !{metadata !206, metadata !311}
!324 = metadata !{i32 786478, i32 0, metadata !148, metadata !"to_short", metadata !"to_short", metadata !"_ZNK11ap_int_baseILi24ELb0ELb1EE8to_shortEv", metadata !149, i32 1720, metadata !325, i1 false, i1 false, i32 0, i32 0, null, i32 256, i1 false, null, null, i32 0, metadata !119, i32 1720} ; [ DW_TAG_subprogram ]
!325 = metadata !{i32 786453, i32 0, metadata !"", i32 0, i32 0, i64 0, i64 0, i64 0, i32 0, null, metadata !326, i32 0, i32 0} ; [ DW_TAG_subroutine_type ]
!326 = metadata !{metadata !202, metadata !311}
!327 = metadata !{i32 786478, i32 0, metadata !148, metadata !"to_int", metadata !"to_int", metadata !"_ZNK11ap_int_baseILi24ELb0ELb1EE6to_intEv", metadata !149, i32 1721, metadata !328, i1 false, i1 false, i32 0, i32 0, null, i32 256, i1 false, null, null, i32 0, metadata !119, i32 1721} ; [ DW_TAG_subprogram ]
!328 = metadata !{i32 786453, i32 0, metadata !"", i32 0, i32 0, i64 0, i64 0, i64 0, i32 0, null, metadata !329, i32 0, i32 0} ; [ DW_TAG_subroutine_type ]
!329 = metadata !{metadata !118, metadata !311}
!330 = metadata !{i32 786478, i32 0, metadata !148, metadata !"to_uint", metadata !"to_uint", metadata !"_ZNK11ap_int_baseILi24ELb0ELb1EE7to_uintEv", metadata !149, i32 1722, metadata !331, i1 false, i1 false, i32 0, i32 0, null, i32 256, i1 false, null, null, i32 0, metadata !119, i32 1722} ; [ DW_TAG_subprogram ]
!331 = metadata !{i32 786453, i32 0, metadata !"", i32 0, i32 0, i64 0, i64 0, i64 0, i32 0, null, metadata !332, i32 0, i32 0} ; [ DW_TAG_subroutine_type ]
!332 = metadata !{metadata !213, metadata !311}
!333 = metadata !{i32 786478, i32 0, metadata !148, metadata !"to_long", metadata !"to_long", metadata !"_ZNK11ap_int_baseILi24ELb0ELb1EE7to_longEv", metadata !149, i32 1723, metadata !334, i1 false, i1 false, i32 0, i32 0, null, i32 256, i1 false, null, null, i32 0, metadata !119, i32 1723} ; [ DW_TAG_subprogram ]
!334 = metadata !{i32 786453, i32 0, metadata !"", i32 0, i32 0, i64 0, i64 0, i64 0, i32 0, null, metadata !335, i32 0, i32 0} ; [ DW_TAG_subroutine_type ]
!335 = metadata !{metadata !217, metadata !311}
!336 = metadata !{i32 786478, i32 0, metadata !148, metadata !"to_ulong", metadata !"to_ulong", metadata !"_ZNK11ap_int_baseILi24ELb0ELb1EE8to_ulongEv", metadata !149, i32 1724, metadata !337, i1 false, i1 false, i32 0, i32 0, null, i32 256, i1 false, null, null, i32 0, metadata !119, i32 1724} ; [ DW_TAG_subprogram ]
!337 = metadata !{i32 786453, i32 0, metadata !"", i32 0, i32 0, i64 0, i64 0, i64 0, i32 0, null, metadata !338, i32 0, i32 0} ; [ DW_TAG_subroutine_type ]
!338 = metadata !{metadata !221, metadata !311}
!339 = metadata !{i32 786478, i32 0, metadata !148, metadata !"to_int64", metadata !"to_int64", metadata !"_ZNK11ap_int_baseILi24ELb0ELb1EE8to_int64Ev", metadata !149, i32 1725, metadata !340, i1 false, i1 false, i32 0, i32 0, null, i32 256, i1 false, null, null, i32 0, metadata !119, i32 1725} ; [ DW_TAG_subprogram ]
!340 = metadata !{i32 786453, i32 0, metadata !"", i32 0, i32 0, i64 0, i64 0, i64 0, i32 0, null, metadata !341, i32 0, i32 0} ; [ DW_TAG_subroutine_type ]
!341 = metadata !{metadata !225, metadata !311}
!342 = metadata !{i32 786478, i32 0, metadata !148, metadata !"to_uint64", metadata !"to_uint64", metadata !"_ZNK11ap_int_baseILi24ELb0ELb1EE9to_uint64Ev", metadata !149, i32 1726, metadata !343, i1 false, i1 false, i32 0, i32 0, null, i32 256, i1 false, null, null, i32 0, metadata !119, i32 1726} ; [ DW_TAG_subprogram ]
!343 = metadata !{i32 786453, i32 0, metadata !"", i32 0, i32 0, i64 0, i64 0, i64 0, i32 0, null, metadata !344, i32 0, i32 0} ; [ DW_TAG_subroutine_type ]
!344 = metadata !{metadata !230, metadata !311}
!345 = metadata !{i32 786478, i32 0, metadata !148, metadata !"to_double", metadata !"to_double", metadata !"_ZNK11ap_int_baseILi24ELb0ELb1EE9to_doubleEv", metadata !149, i32 1727, metadata !346, i1 false, i1 false, i32 0, i32 0, null, i32 256, i1 false, null, null, i32 0, metadata !119, i32 1727} ; [ DW_TAG_subprogram ]
!346 = metadata !{i32 786453, i32 0, metadata !"", i32 0, i32 0, i64 0, i64 0, i64 0, i32 0, null, metadata !347, i32 0, i32 0} ; [ DW_TAG_subroutine_type ]
!347 = metadata !{metadata !244, metadata !311}
!348 = metadata !{i32 786478, i32 0, metadata !148, metadata !"length", metadata !"length", metadata !"_ZNK11ap_int_baseILi24ELb0ELb1EE6lengthEv", metadata !149, i32 1741, metadata !328, i1 false, i1 false, i32 0, i32 0, null, i32 256, i1 false, null, null, i32 0, metadata !119, i32 1741} ; [ DW_TAG_subprogram ]
!349 = metadata !{i32 786478, i32 0, metadata !148, metadata !"length", metadata !"length", metadata !"_ZNVK11ap_int_baseILi24ELb0ELb1EE6lengthEv", metadata !149, i32 1742, metadata !350, i1 false, i1 false, i32 0, i32 0, null, i32 256, i1 false, null, null, i32 0, metadata !119, i32 1742} ; [ DW_TAG_subprogram ]
!350 = metadata !{i32 786453, i32 0, metadata !"", i32 0, i32 0, i64 0, i64 0, i64 0, i32 0, null, metadata !351, i32 0, i32 0} ; [ DW_TAG_subroutine_type ]
!351 = metadata !{metadata !118, metadata !352}
!352 = metadata !{i32 786447, i32 0, metadata !"", i32 0, i32 0, i64 64, i64 64, i64 0, i32 64, metadata !186} ; [ DW_TAG_pointer_type ]
!353 = metadata !{i32 786478, i32 0, metadata !148, metadata !"reverse", metadata !"reverse", metadata !"_ZN11ap_int_baseILi24ELb0ELb1EE7reverseEv", metadata !149, i32 1747, metadata !354, i1 false, i1 false, i32 0, i32 0, null, i32 256, i1 false, null, null, i32 0, metadata !119, i32 1747} ; [ DW_TAG_subprogram ]
!354 = metadata !{i32 786453, i32 0, metadata !"", i32 0, i32 0, i64 0, i64 0, i64 0, i32 0, null, metadata !355, i32 0, i32 0} ; [ DW_TAG_subroutine_type ]
!355 = metadata !{metadata !268, metadata !173}
!356 = metadata !{i32 786478, i32 0, metadata !148, metadata !"iszero", metadata !"iszero", metadata !"_ZNK11ap_int_baseILi24ELb0ELb1EE6iszeroEv", metadata !149, i32 1753, metadata !313, i1 false, i1 false, i32 0, i32 0, null, i32 256, i1 false, null, null, i32 0, metadata !119, i32 1753} ; [ DW_TAG_subprogram ]
!357 = metadata !{i32 786478, i32 0, metadata !148, metadata !"is_zero", metadata !"is_zero", metadata !"_ZNK11ap_int_baseILi24ELb0ELb1EE7is_zeroEv", metadata !149, i32 1758, metadata !313, i1 false, i1 false, i32 0, i32 0, null, i32 256, i1 false, null, null, i32 0, metadata !119, i32 1758} ; [ DW_TAG_subprogram ]
!358 = metadata !{i32 786478, i32 0, metadata !148, metadata !"sign", metadata !"sign", metadata !"_ZNK11ap_int_baseILi24ELb0ELb1EE4signEv", metadata !149, i32 1763, metadata !313, i1 false, i1 false, i32 0, i32 0, null, i32 256, i1 false, null, null, i32 0, metadata !119, i32 1763} ; [ DW_TAG_subprogram ]
!359 = metadata !{i32 786478, i32 0, metadata !148, metadata !"clear", metadata !"clear", metadata !"_ZN11ap_int_baseILi24ELb0ELb1EE5clearEi", metadata !149, i32 1771, metadata !208, i1 false, i1 false, i32 0, i32 0, null, i32 256, i1 false, null, null, i32 0, metadata !119, i32 1771} ; [ DW_TAG_subprogram ]
!360 = metadata !{i32 786478, i32 0, metadata !148, metadata !"invert", metadata !"invert", metadata !"_ZN11ap_int_baseILi24ELb0ELb1EE6invertEi", metadata !149, i32 1777, metadata !208, i1 false, i1 false, i32 0, i32 0, null, i32 256, i1 false, null, null, i32 0, metadata !119, i32 1777} ; [ DW_TAG_subprogram ]
!361 = metadata !{i32 786478, i32 0, metadata !148, metadata !"test", metadata !"test", metadata !"_ZNK11ap_int_baseILi24ELb0ELb1EE4testEi", metadata !149, i32 1785, metadata !362, i1 false, i1 false, i32 0, i32 0, null, i32 256, i1 false, null, null, i32 0, metadata !119, i32 1785} ; [ DW_TAG_subprogram ]
!362 = metadata !{i32 786453, i32 0, metadata !"", i32 0, i32 0, i64 0, i64 0, i64 0, i32 0, null, metadata !363, i32 0, i32 0} ; [ DW_TAG_subroutine_type ]
!363 = metadata !{metadata !169, metadata !311, metadata !118}
!364 = metadata !{i32 786478, i32 0, metadata !148, metadata !"set", metadata !"set", metadata !"_ZN11ap_int_baseILi24ELb0ELb1EE3setEi", metadata !149, i32 1791, metadata !208, i1 false, i1 false, i32 0, i32 0, null, i32 256, i1 false, null, null, i32 0, metadata !119, i32 1791} ; [ DW_TAG_subprogram ]
!365 = metadata !{i32 786478, i32 0, metadata !148, metadata !"set", metadata !"set", metadata !"_ZN11ap_int_baseILi24ELb0ELb1EE3setEib", metadata !149, i32 1797, metadata !366, i1 false, i1 false, i32 0, i32 0, null, i32 256, i1 false, null, null, i32 0, metadata !119, i32 1797} ; [ DW_TAG_subprogram ]
!366 = metadata !{i32 786453, i32 0, metadata !"", i32 0, i32 0, i64 0, i64 0, i64 0, i32 0, null, metadata !367, i32 0, i32 0} ; [ DW_TAG_subroutine_type ]
!367 = metadata !{null, metadata !173, metadata !118, metadata !169}
!368 = metadata !{i32 786478, i32 0, metadata !148, metadata !"lrotate", metadata !"lrotate", metadata !"_ZN11ap_int_baseILi24ELb0ELb1EE7lrotateEi", metadata !149, i32 1804, metadata !208, i1 false, i1 false, i32 0, i32 0, null, i32 256, i1 false, null, null, i32 0, metadata !119, i32 1804} ; [ DW_TAG_subprogram ]
!369 = metadata !{i32 786478, i32 0, metadata !148, metadata !"rrotate", metadata !"rrotate", metadata !"_ZN11ap_int_baseILi24ELb0ELb1EE7rrotateEi", metadata !149, i32 1813, metadata !208, i1 false, i1 false, i32 0, i32 0, null, i32 256, i1 false, null, null, i32 0, metadata !119, i32 1813} ; [ DW_TAG_subprogram ]
!370 = metadata !{i32 786478, i32 0, metadata !148, metadata !"set_bit", metadata !"set_bit", metadata !"_ZN11ap_int_baseILi24ELb0ELb1EE7set_bitEib", metadata !149, i32 1821, metadata !366, i1 false, i1 false, i32 0, i32 0, null, i32 256, i1 false, null, null, i32 0, metadata !119, i32 1821} ; [ DW_TAG_subprogram ]
!371 = metadata !{i32 786478, i32 0, metadata !148, metadata !"get_bit", metadata !"get_bit", metadata !"_ZNK11ap_int_baseILi24ELb0ELb1EE7get_bitEi", metadata !149, i32 1826, metadata !362, i1 false, i1 false, i32 0, i32 0, null, i32 256, i1 false, null, null, i32 0, metadata !119, i32 1826} ; [ DW_TAG_subprogram ]
!372 = metadata !{i32 786478, i32 0, metadata !148, metadata !"b_not", metadata !"b_not", metadata !"_ZN11ap_int_baseILi24ELb0ELb1EE5b_notEv", metadata !149, i32 1831, metadata !171, i1 false, i1 false, i32 0, i32 0, null, i32 256, i1 false, null, null, i32 0, metadata !119, i32 1831} ; [ DW_TAG_subprogram ]
!373 = metadata !{i32 786478, i32 0, metadata !148, metadata !"countLeadingZeros", metadata !"countLeadingZeros", metadata !"_ZN11ap_int_baseILi24ELb0ELb1EE17countLeadingZerosEv", metadata !149, i32 1838, metadata !374, i1 false, i1 false, i32 0, i32 0, null, i32 256, i1 false, null, null, i32 0, metadata !119, i32 1838} ; [ DW_TAG_subprogram ]
!374 = metadata !{i32 786453, i32 0, metadata !"", i32 0, i32 0, i64 0, i64 0, i64 0, i32 0, null, metadata !375, i32 0, i32 0} ; [ DW_TAG_subroutine_type ]
!375 = metadata !{metadata !118, metadata !173}
!376 = metadata !{i32 786478, i32 0, metadata !148, metadata !"operator++", metadata !"operator++", metadata !"_ZN11ap_int_baseILi24ELb0ELb1EEppEv", metadata !149, i32 1895, metadata !354, i1 false, i1 false, i32 0, i32 0, null, i32 256, i1 false, null, null, i32 0, metadata !119, i32 1895} ; [ DW_TAG_subprogram ]
!377 = metadata !{i32 786478, i32 0, metadata !148, metadata !"operator--", metadata !"operator--", metadata !"_ZN11ap_int_baseILi24ELb0ELb1EEmmEv", metadata !149, i32 1899, metadata !354, i1 false, i1 false, i32 0, i32 0, null, i32 256, i1 false, null, null, i32 0, metadata !119, i32 1899} ; [ DW_TAG_subprogram ]
!378 = metadata !{i32 786478, i32 0, metadata !148, metadata !"operator++", metadata !"operator++", metadata !"_ZN11ap_int_baseILi24ELb0ELb1EEppEi", metadata !149, i32 1907, metadata !379, i1 false, i1 false, i32 0, i32 0, null, i32 256, i1 false, null, null, i32 0, metadata !119, i32 1907} ; [ DW_TAG_subprogram ]
!379 = metadata !{i32 786453, i32 0, metadata !"", i32 0, i32 0, i64 0, i64 0, i64 0, i32 0, null, metadata !380, i32 0, i32 0} ; [ DW_TAG_subroutine_type ]
!380 = metadata !{metadata !178, metadata !173, metadata !118}
!381 = metadata !{i32 786478, i32 0, metadata !148, metadata !"operator--", metadata !"operator--", metadata !"_ZN11ap_int_baseILi24ELb0ELb1EEmmEi", metadata !149, i32 1912, metadata !379, i1 false, i1 false, i32 0, i32 0, null, i32 256, i1 false, null, null, i32 0, metadata !119, i32 1912} ; [ DW_TAG_subprogram ]
!382 = metadata !{i32 786478, i32 0, metadata !148, metadata !"operator+", metadata !"operator+", metadata !"_ZNK11ap_int_baseILi24ELb0ELb1EEpsEv", metadata !149, i32 1921, metadata !383, i1 false, i1 false, i32 0, i32 0, null, i32 256, i1 false, null, null, i32 0, metadata !119, i32 1921} ; [ DW_TAG_subprogram ]
!383 = metadata !{i32 786453, i32 0, metadata !"", i32 0, i32 0, i64 0, i64 0, i64 0, i32 0, null, metadata !384, i32 0, i32 0} ; [ DW_TAG_subroutine_type ]
!384 = metadata !{metadata !148, metadata !311}
!385 = metadata !{i32 786478, i32 0, metadata !148, metadata !"operator!", metadata !"operator!", metadata !"_ZNK11ap_int_baseILi24ELb0ELb1EEntEv", metadata !149, i32 1927, metadata !313, i1 false, i1 false, i32 0, i32 0, null, i32 256, i1 false, null, null, i32 0, metadata !119, i32 1927} ; [ DW_TAG_subprogram ]
!386 = metadata !{i32 786478, i32 0, metadata !148, metadata !"operator-", metadata !"operator-", metadata !"_ZNK11ap_int_baseILi24ELb0ELb1EEngEv", metadata !149, i32 1932, metadata !387, i1 false, i1 false, i32 0, i32 0, null, i32 256, i1 false, null, null, i32 0, metadata !119, i32 1932} ; [ DW_TAG_subprogram ]
!387 = metadata !{i32 786453, i32 0, metadata !"", i32 0, i32 0, i64 0, i64 0, i64 0, i32 0, null, metadata !388, i32 0, i32 0} ; [ DW_TAG_subroutine_type ]
!388 = metadata !{metadata !389, metadata !311}
!389 = metadata !{i32 786434, null, metadata !"ap_int_base<25, true, true>", metadata !149, i32 651, i32 0, i32 0, i32 0, i32 4, null, null, i32 0} ; [ DW_TAG_class_type ]
!390 = metadata !{i32 786478, i32 0, metadata !148, metadata !"range", metadata !"range", metadata !"_ZN11ap_int_baseILi24ELb0ELb1EE5rangeEii", metadata !149, i32 2062, metadata !391, i1 false, i1 false, i32 0, i32 0, null, i32 256, i1 false, null, null, i32 0, metadata !119, i32 2062} ; [ DW_TAG_subprogram ]
!391 = metadata !{i32 786453, i32 0, metadata !"", i32 0, i32 0, i64 0, i64 0, i64 0, i32 0, null, metadata !392, i32 0, i32 0} ; [ DW_TAG_subroutine_type ]
!392 = metadata !{metadata !393, metadata !173, metadata !118, metadata !118}
!393 = metadata !{i32 786434, null, metadata !"ap_range_ref<24, false>", metadata !149, i32 925, i64 128, i64 64, i32 0, i32 0, null, metadata !394, i32 0, null, metadata !453} ; [ DW_TAG_class_type ]
!394 = metadata !{metadata !395, metadata !396, metadata !397, metadata !398, metadata !404, metadata !408, metadata !412, metadata !415, metadata !419, metadata !422, metadata !426, metadata !429, metadata !430, metadata !433, metadata !436, metadata !439, metadata !442, metadata !445, metadata !448, metadata !449, metadata !450}
!395 = metadata !{i32 786445, metadata !393, metadata !"d_bv", metadata !149, i32 926, i64 64, i64 64, i64 0, i32 0, metadata !268} ; [ DW_TAG_member ]
!396 = metadata !{i32 786445, metadata !393, metadata !"l_index", metadata !149, i32 927, i64 32, i64 32, i64 64, i32 0, metadata !118} ; [ DW_TAG_member ]
!397 = metadata !{i32 786445, metadata !393, metadata !"h_index", metadata !149, i32 928, i64 32, i64 32, i64 96, i32 0, metadata !118} ; [ DW_TAG_member ]
!398 = metadata !{i32 786478, i32 0, metadata !393, metadata !"ap_range_ref", metadata !"ap_range_ref", metadata !"", metadata !149, i32 931, metadata !399, i1 false, i1 false, i32 0, i32 0, null, i32 256, i1 false, null, null, i32 0, metadata !119, i32 931} ; [ DW_TAG_subprogram ]
!399 = metadata !{i32 786453, i32 0, metadata !"", i32 0, i32 0, i64 0, i64 0, i64 0, i32 0, null, metadata !400, i32 0, i32 0} ; [ DW_TAG_subroutine_type ]
!400 = metadata !{null, metadata !401, metadata !402}
!401 = metadata !{i32 786447, i32 0, metadata !"", i32 0, i32 0, i64 64, i64 64, i64 0, i32 64, metadata !393} ; [ DW_TAG_pointer_type ]
!402 = metadata !{i32 786448, null, null, null, i32 0, i64 0, i64 0, i64 0, i32 0, metadata !403} ; [ DW_TAG_reference_type ]
!403 = metadata !{i32 786470, null, metadata !"", null, i32 0, i64 0, i64 0, i64 0, i32 0, metadata !393} ; [ DW_TAG_const_type ]
!404 = metadata !{i32 786478, i32 0, metadata !393, metadata !"ap_range_ref", metadata !"ap_range_ref", metadata !"", metadata !149, i32 934, metadata !405, i1 false, i1 false, i32 0, i32 0, null, i32 256, i1 false, null, null, i32 0, metadata !119, i32 934} ; [ DW_TAG_subprogram ]
!405 = metadata !{i32 786453, i32 0, metadata !"", i32 0, i32 0, i64 0, i64 0, i64 0, i32 0, null, metadata !406, i32 0, i32 0} ; [ DW_TAG_subroutine_type ]
!406 = metadata !{null, metadata !401, metadata !407, metadata !118, metadata !118}
!407 = metadata !{i32 786447, null, metadata !"", null, i32 0, i64 64, i64 64, i64 0, i32 0, metadata !148} ; [ DW_TAG_pointer_type ]
!408 = metadata !{i32 786478, i32 0, metadata !393, metadata !"operator ap_int_base", metadata !"operator ap_int_base", metadata !"_ZNK12ap_range_refILi24ELb0EEcv11ap_int_baseILi24ELb0ELb1EEEv", metadata !149, i32 939, metadata !409, i1 false, i1 false, i32 0, i32 0, null, i32 256, i1 false, null, null, i32 0, metadata !119, i32 939} ; [ DW_TAG_subprogram ]
!409 = metadata !{i32 786453, i32 0, metadata !"", i32 0, i32 0, i64 0, i64 0, i64 0, i32 0, null, metadata !410, i32 0, i32 0} ; [ DW_TAG_subroutine_type ]
!410 = metadata !{metadata !148, metadata !411}
!411 = metadata !{i32 786447, i32 0, metadata !"", i32 0, i32 0, i64 64, i64 64, i64 0, i32 64, metadata !403} ; [ DW_TAG_pointer_type ]
!412 = metadata !{i32 786478, i32 0, metadata !393, metadata !"operator unsigned long long", metadata !"operator unsigned long long", metadata !"_ZNK12ap_range_refILi24ELb0EEcvyEv", metadata !149, i32 945, metadata !413, i1 false, i1 false, i32 0, i32 0, null, i32 256, i1 false, null, null, i32 0, metadata !119, i32 945} ; [ DW_TAG_subprogram ]
!413 = metadata !{i32 786453, i32 0, metadata !"", i32 0, i32 0, i64 0, i64 0, i64 0, i32 0, null, metadata !414, i32 0, i32 0} ; [ DW_TAG_subroutine_type ]
!414 = metadata !{metadata !231, metadata !411}
!415 = metadata !{i32 786478, i32 0, metadata !393, metadata !"operator=", metadata !"operator=", metadata !"_ZN12ap_range_refILi24ELb0EEaSEy", metadata !149, i32 949, metadata !416, i1 false, i1 false, i32 0, i32 0, null, i32 256, i1 false, null, null, i32 0, metadata !119, i32 949} ; [ DW_TAG_subprogram ]
!416 = metadata !{i32 786453, i32 0, metadata !"", i32 0, i32 0, i64 0, i64 0, i64 0, i32 0, null, metadata !417, i32 0, i32 0} ; [ DW_TAG_subroutine_type ]
!417 = metadata !{metadata !418, metadata !401, metadata !231}
!418 = metadata !{i32 786448, null, null, null, i32 0, i64 0, i64 0, i64 0, i32 0, metadata !393} ; [ DW_TAG_reference_type ]
!419 = metadata !{i32 786478, i32 0, metadata !393, metadata !"operator=", metadata !"operator=", metadata !"_ZN12ap_range_refILi24ELb0EEaSERKS0_", metadata !149, i32 967, metadata !420, i1 false, i1 false, i32 0, i32 0, null, i32 256, i1 false, null, null, i32 0, metadata !119, i32 967} ; [ DW_TAG_subprogram ]
!420 = metadata !{i32 786453, i32 0, metadata !"", i32 0, i32 0, i64 0, i64 0, i64 0, i32 0, null, metadata !421, i32 0, i32 0} ; [ DW_TAG_subroutine_type ]
!421 = metadata !{metadata !418, metadata !401, metadata !402}
!422 = metadata !{i32 786478, i32 0, metadata !393, metadata !"operator,", metadata !"operator,", metadata !"_ZN12ap_range_refILi24ELb0EEcmER11ap_int_baseILi24ELb0ELb1EE", metadata !149, i32 1022, metadata !423, i1 false, i1 false, i32 0, i32 0, null, i32 256, i1 false, null, null, i32 0, metadata !119, i32 1022} ; [ DW_TAG_subprogram ]
!423 = metadata !{i32 786453, i32 0, metadata !"", i32 0, i32 0, i64 0, i64 0, i64 0, i32 0, null, metadata !424, i32 0, i32 0} ; [ DW_TAG_subroutine_type ]
!424 = metadata !{metadata !425, metadata !401, metadata !268}
!425 = metadata !{i32 786434, null, metadata !"ap_concat_ref<24, ap_range_ref<24, false>, 24, ap_int_base<24, false, true> >", metadata !149, i32 688, i32 0, i32 0, i32 0, i32 4, null, null, i32 0} ; [ DW_TAG_class_type ]
!426 = metadata !{i32 786478, i32 0, metadata !393, metadata !"length", metadata !"length", metadata !"_ZNK12ap_range_refILi24ELb0EE6lengthEv", metadata !149, i32 1187, metadata !427, i1 false, i1 false, i32 0, i32 0, null, i32 256, i1 false, null, null, i32 0, metadata !119, i32 1187} ; [ DW_TAG_subprogram ]
!427 = metadata !{i32 786453, i32 0, metadata !"", i32 0, i32 0, i64 0, i64 0, i64 0, i32 0, null, metadata !428, i32 0, i32 0} ; [ DW_TAG_subroutine_type ]
!428 = metadata !{metadata !118, metadata !411}
!429 = metadata !{i32 786478, i32 0, metadata !393, metadata !"to_int", metadata !"to_int", metadata !"_ZNK12ap_range_refILi24ELb0EE6to_intEv", metadata !149, i32 1191, metadata !427, i1 false, i1 false, i32 0, i32 0, null, i32 256, i1 false, null, null, i32 0, metadata !119, i32 1191} ; [ DW_TAG_subprogram ]
!430 = metadata !{i32 786478, i32 0, metadata !393, metadata !"to_uint", metadata !"to_uint", metadata !"_ZNK12ap_range_refILi24ELb0EE7to_uintEv", metadata !149, i32 1194, metadata !431, i1 false, i1 false, i32 0, i32 0, null, i32 256, i1 false, null, null, i32 0, metadata !119, i32 1194} ; [ DW_TAG_subprogram ]
!431 = metadata !{i32 786453, i32 0, metadata !"", i32 0, i32 0, i64 0, i64 0, i64 0, i32 0, null, metadata !432, i32 0, i32 0} ; [ DW_TAG_subroutine_type ]
!432 = metadata !{metadata !213, metadata !411}
!433 = metadata !{i32 786478, i32 0, metadata !393, metadata !"to_long", metadata !"to_long", metadata !"_ZNK12ap_range_refILi24ELb0EE7to_longEv", metadata !149, i32 1197, metadata !434, i1 false, i1 false, i32 0, i32 0, null, i32 256, i1 false, null, null, i32 0, metadata !119, i32 1197} ; [ DW_TAG_subprogram ]
!434 = metadata !{i32 786453, i32 0, metadata !"", i32 0, i32 0, i64 0, i64 0, i64 0, i32 0, null, metadata !435, i32 0, i32 0} ; [ DW_TAG_subroutine_type ]
!435 = metadata !{metadata !217, metadata !411}
!436 = metadata !{i32 786478, i32 0, metadata !393, metadata !"to_ulong", metadata !"to_ulong", metadata !"_ZNK12ap_range_refILi24ELb0EE8to_ulongEv", metadata !149, i32 1200, metadata !437, i1 false, i1 false, i32 0, i32 0, null, i32 256, i1 false, null, null, i32 0, metadata !119, i32 1200} ; [ DW_TAG_subprogram ]
!437 = metadata !{i32 786453, i32 0, metadata !"", i32 0, i32 0, i64 0, i64 0, i64 0, i32 0, null, metadata !438, i32 0, i32 0} ; [ DW_TAG_subroutine_type ]
!438 = metadata !{metadata !221, metadata !411}
!439 = metadata !{i32 786478, i32 0, metadata !393, metadata !"to_int64", metadata !"to_int64", metadata !"_ZNK12ap_range_refILi24ELb0EE8to_int64Ev", metadata !149, i32 1203, metadata !440, i1 false, i1 false, i32 0, i32 0, null, i32 256, i1 false, null, null, i32 0, metadata !119, i32 1203} ; [ DW_TAG_subprogram ]
!440 = metadata !{i32 786453, i32 0, metadata !"", i32 0, i32 0, i64 0, i64 0, i64 0, i32 0, null, metadata !441, i32 0, i32 0} ; [ DW_TAG_subroutine_type ]
!441 = metadata !{metadata !225, metadata !411}
!442 = metadata !{i32 786478, i32 0, metadata !393, metadata !"to_uint64", metadata !"to_uint64", metadata !"_ZNK12ap_range_refILi24ELb0EE9to_uint64Ev", metadata !149, i32 1206, metadata !443, i1 false, i1 false, i32 0, i32 0, null, i32 256, i1 false, null, null, i32 0, metadata !119, i32 1206} ; [ DW_TAG_subprogram ]
!443 = metadata !{i32 786453, i32 0, metadata !"", i32 0, i32 0, i64 0, i64 0, i64 0, i32 0, null, metadata !444, i32 0, i32 0} ; [ DW_TAG_subroutine_type ]
!444 = metadata !{metadata !230, metadata !411}
!445 = metadata !{i32 786478, i32 0, metadata !393, metadata !"and_reduce", metadata !"and_reduce", metadata !"_ZNK12ap_range_refILi24ELb0EE10and_reduceEv", metadata !149, i32 1209, metadata !446, i1 false, i1 false, i32 0, i32 0, null, i32 256, i1 false, null, null, i32 0, metadata !119, i32 1209} ; [ DW_TAG_subprogram ]
!446 = metadata !{i32 786453, i32 0, metadata !"", i32 0, i32 0, i64 0, i64 0, i64 0, i32 0, null, metadata !447, i32 0, i32 0} ; [ DW_TAG_subroutine_type ]
!447 = metadata !{metadata !169, metadata !411}
!448 = metadata !{i32 786478, i32 0, metadata !393, metadata !"or_reduce", metadata !"or_reduce", metadata !"_ZNK12ap_range_refILi24ELb0EE9or_reduceEv", metadata !149, i32 1220, metadata !446, i1 false, i1 false, i32 0, i32 0, null, i32 256, i1 false, null, null, i32 0, metadata !119, i32 1220} ; [ DW_TAG_subprogram ]
!449 = metadata !{i32 786478, i32 0, metadata !393, metadata !"xor_reduce", metadata !"xor_reduce", metadata !"_ZNK12ap_range_refILi24ELb0EE10xor_reduceEv", metadata !149, i32 1231, metadata !446, i1 false, i1 false, i32 0, i32 0, null, i32 256, i1 false, null, null, i32 0, metadata !119, i32 1231} ; [ DW_TAG_subprogram ]
!450 = metadata !{i32 786478, i32 0, metadata !393, metadata !"~ap_range_ref", metadata !"~ap_range_ref", metadata !"", metadata !149, i32 925, metadata !451, i1 false, i1 false, i32 0, i32 0, null, i32 320, i1 false, null, null, i32 0, metadata !119, i32 925} ; [ DW_TAG_subprogram ]
!451 = metadata !{i32 786453, i32 0, metadata !"", i32 0, i32 0, i64 0, i64 0, i64 0, i32 0, null, metadata !452, i32 0, i32 0} ; [ DW_TAG_subroutine_type ]
!452 = metadata !{null, metadata !401}
!453 = metadata !{metadata !454, metadata !168}
!454 = metadata !{i32 786480, null, metadata !"_AP_W", metadata !118, i64 24, null, i32 0, i32 0} ; [ DW_TAG_template_value_parameter ]
!455 = metadata !{i32 786478, i32 0, metadata !148, metadata !"operator()", metadata !"operator()", metadata !"_ZN11ap_int_baseILi24ELb0ELb1EEclEii", metadata !149, i32 2068, metadata !391, i1 false, i1 false, i32 0, i32 0, null, i32 256, i1 false, null, null, i32 0, metadata !119, i32 2068} ; [ DW_TAG_subprogram ]
!456 = metadata !{i32 786478, i32 0, metadata !148, metadata !"range", metadata !"range", metadata !"_ZNK11ap_int_baseILi24ELb0ELb1EE5rangeEii", metadata !149, i32 2074, metadata !457, i1 false, i1 false, i32 0, i32 0, null, i32 256, i1 false, null, null, i32 0, metadata !119, i32 2074} ; [ DW_TAG_subprogram ]
!457 = metadata !{i32 786453, i32 0, metadata !"", i32 0, i32 0, i64 0, i64 0, i64 0, i32 0, null, metadata !458, i32 0, i32 0} ; [ DW_TAG_subroutine_type ]
!458 = metadata !{metadata !393, metadata !311, metadata !118, metadata !118}
!459 = metadata !{i32 786478, i32 0, metadata !148, metadata !"operator()", metadata !"operator()", metadata !"_ZNK11ap_int_baseILi24ELb0ELb1EEclEii", metadata !149, i32 2080, metadata !457, i1 false, i1 false, i32 0, i32 0, null, i32 256, i1 false, null, null, i32 0, metadata !119, i32 2080} ; [ DW_TAG_subprogram ]
!460 = metadata !{i32 786478, i32 0, metadata !148, metadata !"operator[]", metadata !"operator[]", metadata !"_ZN11ap_int_baseILi24ELb0ELb1EEixEi", metadata !149, i32 2099, metadata !461, i1 false, i1 false, i32 0, i32 0, null, i32 256, i1 false, null, null, i32 0, metadata !119, i32 2099} ; [ DW_TAG_subprogram ]
!461 = metadata !{i32 786453, i32 0, metadata !"", i32 0, i32 0, i64 0, i64 0, i64 0, i32 0, null, metadata !462, i32 0, i32 0} ; [ DW_TAG_subroutine_type ]
!462 = metadata !{metadata !463, metadata !173, metadata !118}
!463 = metadata !{i32 786434, null, metadata !"ap_bit_ref<24, false>", metadata !149, i32 1249, i32 0, i32 0, i32 0, i32 4, null, null, i32 0} ; [ DW_TAG_class_type ]
!464 = metadata !{i32 786478, i32 0, metadata !148, metadata !"operator[]", metadata !"operator[]", metadata !"_ZNK11ap_int_baseILi24ELb0ELb1EEixEi", metadata !149, i32 2113, metadata !362, i1 false, i1 false, i32 0, i32 0, null, i32 256, i1 false, null, null, i32 0, metadata !119, i32 2113} ; [ DW_TAG_subprogram ]
!465 = metadata !{i32 786478, i32 0, metadata !148, metadata !"bit", metadata !"bit", metadata !"_ZN11ap_int_baseILi24ELb0ELb1EE3bitEi", metadata !149, i32 2127, metadata !461, i1 false, i1 false, i32 0, i32 0, null, i32 256, i1 false, null, null, i32 0, metadata !119, i32 2127} ; [ DW_TAG_subprogram ]
!466 = metadata !{i32 786478, i32 0, metadata !148, metadata !"bit", metadata !"bit", metadata !"_ZNK11ap_int_baseILi24ELb0ELb1EE3bitEi", metadata !149, i32 2141, metadata !362, i1 false, i1 false, i32 0, i32 0, null, i32 256, i1 false, null, null, i32 0, metadata !119, i32 2141} ; [ DW_TAG_subprogram ]
!467 = metadata !{i32 786478, i32 0, metadata !148, metadata !"and_reduce", metadata !"and_reduce", metadata !"_ZN11ap_int_baseILi24ELb0ELb1EE10and_reduceEv", metadata !149, i32 2321, metadata !468, i1 false, i1 false, i32 0, i32 0, null, i32 256, i1 false, null, null, i32 0, metadata !119, i32 2321} ; [ DW_TAG_subprogram ]
!468 = metadata !{i32 786453, i32 0, metadata !"", i32 0, i32 0, i64 0, i64 0, i64 0, i32 0, null, metadata !469, i32 0, i32 0} ; [ DW_TAG_subroutine_type ]
!469 = metadata !{metadata !169, metadata !173}
!470 = metadata !{i32 786478, i32 0, metadata !148, metadata !"nand_reduce", metadata !"nand_reduce", metadata !"_ZN11ap_int_baseILi24ELb0ELb1EE11nand_reduceEv", metadata !149, i32 2324, metadata !468, i1 false, i1 false, i32 0, i32 0, null, i32 256, i1 false, null, null, i32 0, metadata !119, i32 2324} ; [ DW_TAG_subprogram ]
!471 = metadata !{i32 786478, i32 0, metadata !148, metadata !"or_reduce", metadata !"or_reduce", metadata !"_ZN11ap_int_baseILi24ELb0ELb1EE9or_reduceEv", metadata !149, i32 2327, metadata !468, i1 false, i1 false, i32 0, i32 0, null, i32 256, i1 false, null, null, i32 0, metadata !119, i32 2327} ; [ DW_TAG_subprogram ]
!472 = metadata !{i32 786478, i32 0, metadata !148, metadata !"nor_reduce", metadata !"nor_reduce", metadata !"_ZN11ap_int_baseILi24ELb0ELb1EE10nor_reduceEv", metadata !149, i32 2330, metadata !468, i1 false, i1 false, i32 0, i32 0, null, i32 256, i1 false, null, null, i32 0, metadata !119, i32 2330} ; [ DW_TAG_subprogram ]
!473 = metadata !{i32 786478, i32 0, metadata !148, metadata !"xor_reduce", metadata !"xor_reduce", metadata !"_ZN11ap_int_baseILi24ELb0ELb1EE10xor_reduceEv", metadata !149, i32 2333, metadata !468, i1 false, i1 false, i32 0, i32 0, null, i32 256, i1 false, null, null, i32 0, metadata !119, i32 2333} ; [ DW_TAG_subprogram ]
!474 = metadata !{i32 786478, i32 0, metadata !148, metadata !"xnor_reduce", metadata !"xnor_reduce", metadata !"_ZN11ap_int_baseILi24ELb0ELb1EE11xnor_reduceEv", metadata !149, i32 2336, metadata !468, i1 false, i1 false, i32 0, i32 0, null, i32 256, i1 false, null, null, i32 0, metadata !119, i32 2336} ; [ DW_TAG_subprogram ]
!475 = metadata !{i32 786478, i32 0, metadata !148, metadata !"and_reduce", metadata !"and_reduce", metadata !"_ZNK11ap_int_baseILi24ELb0ELb1EE10and_reduceEv", metadata !149, i32 2340, metadata !313, i1 false, i1 false, i32 0, i32 0, null, i32 256, i1 false, null, null, i32 0, metadata !119, i32 2340} ; [ DW_TAG_subprogram ]
!476 = metadata !{i32 786478, i32 0, metadata !148, metadata !"nand_reduce", metadata !"nand_reduce", metadata !"_ZNK11ap_int_baseILi24ELb0ELb1EE11nand_reduceEv", metadata !149, i32 2343, metadata !313, i1 false, i1 false, i32 0, i32 0, null, i32 256, i1 false, null, null, i32 0, metadata !119, i32 2343} ; [ DW_TAG_subprogram ]
!477 = metadata !{i32 786478, i32 0, metadata !148, metadata !"or_reduce", metadata !"or_reduce", metadata !"_ZNK11ap_int_baseILi24ELb0ELb1EE9or_reduceEv", metadata !149, i32 2346, metadata !313, i1 false, i1 false, i32 0, i32 0, null, i32 256, i1 false, null, null, i32 0, metadata !119, i32 2346} ; [ DW_TAG_subprogram ]
!478 = metadata !{i32 786478, i32 0, metadata !148, metadata !"nor_reduce", metadata !"nor_reduce", metadata !"_ZNK11ap_int_baseILi24ELb0ELb1EE10nor_reduceEv", metadata !149, i32 2349, metadata !313, i1 false, i1 false, i32 0, i32 0, null, i32 256, i1 false, null, null, i32 0, metadata !119, i32 2349} ; [ DW_TAG_subprogram ]
!479 = metadata !{i32 786478, i32 0, metadata !148, metadata !"xor_reduce", metadata !"xor_reduce", metadata !"_ZNK11ap_int_baseILi24ELb0ELb1EE10xor_reduceEv", metadata !149, i32 2352, metadata !313, i1 false, i1 false, i32 0, i32 0, null, i32 256, i1 false, null, null, i32 0, metadata !119, i32 2352} ; [ DW_TAG_subprogram ]
!480 = metadata !{i32 786478, i32 0, metadata !148, metadata !"xnor_reduce", metadata !"xnor_reduce", metadata !"_ZNK11ap_int_baseILi24ELb0ELb1EE11xnor_reduceEv", metadata !149, i32 2355, metadata !313, i1 false, i1 false, i32 0, i32 0, null, i32 256, i1 false, null, null, i32 0, metadata !119, i32 2355} ; [ DW_TAG_subprogram ]
!481 = metadata !{i32 786478, i32 0, metadata !148, metadata !"to_string", metadata !"to_string", metadata !"_ZNK11ap_int_baseILi24ELb0ELb1EE9to_stringEPci8BaseModeb", metadata !149, i32 2362, metadata !482, i1 false, i1 false, i32 0, i32 0, null, i32 256, i1 false, null, null, i32 0, metadata !119, i32 2362} ; [ DW_TAG_subprogram ]
!482 = metadata !{i32 786453, i32 0, metadata !"", i32 0, i32 0, i64 0, i64 0, i64 0, i32 0, null, metadata !483, i32 0, i32 0} ; [ DW_TAG_subroutine_type ]
!483 = metadata !{null, metadata !311, metadata !484, metadata !118, metadata !485, metadata !169}
!484 = metadata !{i32 786447, null, metadata !"", null, i32 0, i64 64, i64 64, i64 0, i32 0, metadata !250} ; [ DW_TAG_pointer_type ]
!485 = metadata !{i32 786436, null, metadata !"BaseMode", metadata !149, i32 603, i64 5, i64 8, i32 0, i32 0, null, metadata !486, i32 0, i32 0} ; [ DW_TAG_enumeration_type ]
!486 = metadata !{metadata !487, metadata !488, metadata !489, metadata !490}
!487 = metadata !{i32 786472, metadata !"SC_BIN", i64 2} ; [ DW_TAG_enumerator ]
!488 = metadata !{i32 786472, metadata !"SC_OCT", i64 8} ; [ DW_TAG_enumerator ]
!489 = metadata !{i32 786472, metadata !"SC_DEC", i64 10} ; [ DW_TAG_enumerator ]
!490 = metadata !{i32 786472, metadata !"SC_HEX", i64 16} ; [ DW_TAG_enumerator ]
!491 = metadata !{i32 786478, i32 0, metadata !148, metadata !"to_string", metadata !"to_string", metadata !"_ZNK11ap_int_baseILi24ELb0ELb1EE9to_stringE8BaseModeb", metadata !149, i32 2389, metadata !492, i1 false, i1 false, i32 0, i32 0, null, i32 256, i1 false, null, null, i32 0, metadata !119, i32 2389} ; [ DW_TAG_subprogram ]
!492 = metadata !{i32 786453, i32 0, metadata !"", i32 0, i32 0, i64 0, i64 0, i64 0, i32 0, null, metadata !493, i32 0, i32 0} ; [ DW_TAG_subroutine_type ]
!493 = metadata !{metadata !484, metadata !311, metadata !485, metadata !169}
!494 = metadata !{i32 786478, i32 0, metadata !148, metadata !"to_string", metadata !"to_string", metadata !"_ZNK11ap_int_baseILi24ELb0ELb1EE9to_stringEab", metadata !149, i32 2393, metadata !495, i1 false, i1 false, i32 0, i32 0, null, i32 256, i1 false, null, null, i32 0, metadata !119, i32 2393} ; [ DW_TAG_subprogram ]
!495 = metadata !{i32 786453, i32 0, metadata !"", i32 0, i32 0, i64 0, i64 0, i64 0, i32 0, null, metadata !496, i32 0, i32 0} ; [ DW_TAG_subroutine_type ]
!496 = metadata !{metadata !484, metadata !311, metadata !194, metadata !169}
!497 = metadata !{metadata !454, metadata !168, metadata !498}
!498 = metadata !{i32 786480, null, metadata !"_AP_C", metadata !169, i64 1, null, i32 0, i32 0} ; [ DW_TAG_template_value_parameter ]
!499 = metadata !{i32 786478, i32 0, metadata !144, metadata !"ap_uint", metadata !"ap_uint", metadata !"", metadata !145, i32 186, metadata !500, i1 false, i1 false, i32 0, i32 0, null, i32 256, i1 false, null, null, i32 0, metadata !119, i32 186} ; [ DW_TAG_subprogram ]
!500 = metadata !{i32 786453, i32 0, metadata !"", i32 0, i32 0, i64 0, i64 0, i64 0, i32 0, null, metadata !501, i32 0, i32 0} ; [ DW_TAG_subroutine_type ]
!501 = metadata !{null, metadata !502}
!502 = metadata !{i32 786447, i32 0, metadata !"", i32 0, i32 0, i64 64, i64 64, i64 0, i32 64, metadata !144} ; [ DW_TAG_pointer_type ]
!503 = metadata !{i32 786478, i32 0, metadata !144, metadata !"ap_uint", metadata !"ap_uint", metadata !"", metadata !145, i32 248, metadata !504, i1 false, i1 false, i32 0, i32 0, null, i32 256, i1 false, null, null, i32 0, metadata !119, i32 248} ; [ DW_TAG_subprogram ]
!504 = metadata !{i32 786453, i32 0, metadata !"", i32 0, i32 0, i64 0, i64 0, i64 0, i32 0, null, metadata !505, i32 0, i32 0} ; [ DW_TAG_subroutine_type ]
!505 = metadata !{null, metadata !502, metadata !169}
!506 = metadata !{i32 786478, i32 0, metadata !144, metadata !"ap_uint", metadata !"ap_uint", metadata !"", metadata !145, i32 249, metadata !507, i1 false, i1 false, i32 0, i32 0, null, i32 256, i1 false, null, null, i32 0, metadata !119, i32 249} ; [ DW_TAG_subprogram ]
!507 = metadata !{i32 786453, i32 0, metadata !"", i32 0, i32 0, i64 0, i64 0, i64 0, i32 0, null, metadata !508, i32 0, i32 0} ; [ DW_TAG_subroutine_type ]
!508 = metadata !{null, metadata !502, metadata !194}
!509 = metadata !{i32 786478, i32 0, metadata !144, metadata !"ap_uint", metadata !"ap_uint", metadata !"", metadata !145, i32 250, metadata !510, i1 false, i1 false, i32 0, i32 0, null, i32 256, i1 false, null, null, i32 0, metadata !119, i32 250} ; [ DW_TAG_subprogram ]
!510 = metadata !{i32 786453, i32 0, metadata !"", i32 0, i32 0, i64 0, i64 0, i64 0, i32 0, null, metadata !511, i32 0, i32 0} ; [ DW_TAG_subroutine_type ]
!511 = metadata !{null, metadata !502, metadata !198}
!512 = metadata !{i32 786478, i32 0, metadata !144, metadata !"ap_uint", metadata !"ap_uint", metadata !"", metadata !145, i32 251, metadata !513, i1 false, i1 false, i32 0, i32 0, null, i32 256, i1 false, null, null, i32 0, metadata !119, i32 251} ; [ DW_TAG_subprogram ]
!513 = metadata !{i32 786453, i32 0, metadata !"", i32 0, i32 0, i64 0, i64 0, i64 0, i32 0, null, metadata !514, i32 0, i32 0} ; [ DW_TAG_subroutine_type ]
!514 = metadata !{null, metadata !502, metadata !202}
!515 = metadata !{i32 786478, i32 0, metadata !144, metadata !"ap_uint", metadata !"ap_uint", metadata !"", metadata !145, i32 252, metadata !516, i1 false, i1 false, i32 0, i32 0, null, i32 256, i1 false, null, null, i32 0, metadata !119, i32 252} ; [ DW_TAG_subprogram ]
!516 = metadata !{i32 786453, i32 0, metadata !"", i32 0, i32 0, i64 0, i64 0, i64 0, i32 0, null, metadata !517, i32 0, i32 0} ; [ DW_TAG_subroutine_type ]
!517 = metadata !{null, metadata !502, metadata !206}
!518 = metadata !{i32 786478, i32 0, metadata !144, metadata !"ap_uint", metadata !"ap_uint", metadata !"", metadata !145, i32 253, metadata !519, i1 false, i1 false, i32 0, i32 0, null, i32 256, i1 false, null, null, i32 0, metadata !119, i32 253} ; [ DW_TAG_subprogram ]
!519 = metadata !{i32 786453, i32 0, metadata !"", i32 0, i32 0, i64 0, i64 0, i64 0, i32 0, null, metadata !520, i32 0, i32 0} ; [ DW_TAG_subroutine_type ]
!520 = metadata !{null, metadata !502, metadata !118}
!521 = metadata !{i32 786478, i32 0, metadata !144, metadata !"ap_uint", metadata !"ap_uint", metadata !"", metadata !145, i32 254, metadata !522, i1 false, i1 false, i32 0, i32 0, null, i32 256, i1 false, null, null, i32 0, metadata !119, i32 254} ; [ DW_TAG_subprogram ]
!522 = metadata !{i32 786453, i32 0, metadata !"", i32 0, i32 0, i64 0, i64 0, i64 0, i32 0, null, metadata !523, i32 0, i32 0} ; [ DW_TAG_subroutine_type ]
!523 = metadata !{null, metadata !502, metadata !213}
!524 = metadata !{i32 786478, i32 0, metadata !144, metadata !"ap_uint", metadata !"ap_uint", metadata !"", metadata !145, i32 255, metadata !525, i1 false, i1 false, i32 0, i32 0, null, i32 256, i1 false, null, null, i32 0, metadata !119, i32 255} ; [ DW_TAG_subprogram ]
!525 = metadata !{i32 786453, i32 0, metadata !"", i32 0, i32 0, i64 0, i64 0, i64 0, i32 0, null, metadata !526, i32 0, i32 0} ; [ DW_TAG_subroutine_type ]
!526 = metadata !{null, metadata !502, metadata !217}
!527 = metadata !{i32 786478, i32 0, metadata !144, metadata !"ap_uint", metadata !"ap_uint", metadata !"", metadata !145, i32 256, metadata !528, i1 false, i1 false, i32 0, i32 0, null, i32 256, i1 false, null, null, i32 0, metadata !119, i32 256} ; [ DW_TAG_subprogram ]
!528 = metadata !{i32 786453, i32 0, metadata !"", i32 0, i32 0, i64 0, i64 0, i64 0, i32 0, null, metadata !529, i32 0, i32 0} ; [ DW_TAG_subroutine_type ]
!529 = metadata !{null, metadata !502, metadata !221}
!530 = metadata !{i32 786478, i32 0, metadata !144, metadata !"ap_uint", metadata !"ap_uint", metadata !"", metadata !145, i32 257, metadata !531, i1 false, i1 false, i32 0, i32 0, null, i32 256, i1 false, null, null, i32 0, metadata !119, i32 257} ; [ DW_TAG_subprogram ]
!531 = metadata !{i32 786453, i32 0, metadata !"", i32 0, i32 0, i64 0, i64 0, i64 0, i32 0, null, metadata !532, i32 0, i32 0} ; [ DW_TAG_subroutine_type ]
!532 = metadata !{null, metadata !502, metadata !231}
!533 = metadata !{i32 786478, i32 0, metadata !144, metadata !"ap_uint", metadata !"ap_uint", metadata !"", metadata !145, i32 258, metadata !534, i1 false, i1 false, i32 0, i32 0, null, i32 256, i1 false, null, null, i32 0, metadata !119, i32 258} ; [ DW_TAG_subprogram ]
!534 = metadata !{i32 786453, i32 0, metadata !"", i32 0, i32 0, i64 0, i64 0, i64 0, i32 0, null, metadata !535, i32 0, i32 0} ; [ DW_TAG_subroutine_type ]
!535 = metadata !{null, metadata !502, metadata !226}
!536 = metadata !{i32 786478, i32 0, metadata !144, metadata !"ap_uint", metadata !"ap_uint", metadata !"", metadata !145, i32 259, metadata !537, i1 false, i1 false, i32 0, i32 0, null, i32 256, i1 false, null, null, i32 0, metadata !119, i32 259} ; [ DW_TAG_subprogram ]
!537 = metadata !{i32 786453, i32 0, metadata !"", i32 0, i32 0, i64 0, i64 0, i64 0, i32 0, null, metadata !538, i32 0, i32 0} ; [ DW_TAG_subroutine_type ]
!538 = metadata !{null, metadata !502, metadata !235}
!539 = metadata !{i32 786478, i32 0, metadata !144, metadata !"ap_uint", metadata !"ap_uint", metadata !"", metadata !145, i32 260, metadata !540, i1 false, i1 false, i32 0, i32 0, null, i32 256, i1 false, null, null, i32 0, metadata !119, i32 260} ; [ DW_TAG_subprogram ]
!540 = metadata !{i32 786453, i32 0, metadata !"", i32 0, i32 0, i64 0, i64 0, i64 0, i32 0, null, metadata !541, i32 0, i32 0} ; [ DW_TAG_subroutine_type ]
!541 = metadata !{null, metadata !502, metadata !240}
!542 = metadata !{i32 786478, i32 0, metadata !144, metadata !"ap_uint", metadata !"ap_uint", metadata !"", metadata !145, i32 261, metadata !543, i1 false, i1 false, i32 0, i32 0, null, i32 256, i1 false, null, null, i32 0, metadata !119, i32 261} ; [ DW_TAG_subprogram ]
!543 = metadata !{i32 786453, i32 0, metadata !"", i32 0, i32 0, i64 0, i64 0, i64 0, i32 0, null, metadata !544, i32 0, i32 0} ; [ DW_TAG_subroutine_type ]
!544 = metadata !{null, metadata !502, metadata !244}
!545 = metadata !{i32 786478, i32 0, metadata !144, metadata !"ap_uint", metadata !"ap_uint", metadata !"", metadata !145, i32 263, metadata !546, i1 false, i1 false, i32 0, i32 0, null, i32 256, i1 false, null, null, i32 0, metadata !119, i32 263} ; [ DW_TAG_subprogram ]
!546 = metadata !{i32 786453, i32 0, metadata !"", i32 0, i32 0, i64 0, i64 0, i64 0, i32 0, null, metadata !547, i32 0, i32 0} ; [ DW_TAG_subroutine_type ]
!547 = metadata !{null, metadata !502, metadata !248}
!548 = metadata !{i32 786478, i32 0, metadata !144, metadata !"ap_uint", metadata !"ap_uint", metadata !"", metadata !145, i32 264, metadata !549, i1 false, i1 false, i32 0, i32 0, null, i32 256, i1 false, null, null, i32 0, metadata !119, i32 264} ; [ DW_TAG_subprogram ]
!549 = metadata !{i32 786453, i32 0, metadata !"", i32 0, i32 0, i64 0, i64 0, i64 0, i32 0, null, metadata !550, i32 0, i32 0} ; [ DW_TAG_subroutine_type ]
!550 = metadata !{null, metadata !502, metadata !248, metadata !194}
!551 = metadata !{i32 786478, i32 0, metadata !144, metadata !"operator=", metadata !"operator=", metadata !"_ZNV7ap_uintILi24EEaSERKS0_", metadata !145, i32 267, metadata !552, i1 false, i1 false, i32 0, i32 0, null, i32 256, i1 false, null, null, i32 0, metadata !119, i32 267} ; [ DW_TAG_subprogram ]
!552 = metadata !{i32 786453, i32 0, metadata !"", i32 0, i32 0, i64 0, i64 0, i64 0, i32 0, null, metadata !553, i32 0, i32 0} ; [ DW_TAG_subroutine_type ]
!553 = metadata !{null, metadata !554, metadata !556}
!554 = metadata !{i32 786447, i32 0, metadata !"", i32 0, i32 0, i64 64, i64 64, i64 0, i32 64, metadata !555} ; [ DW_TAG_pointer_type ]
!555 = metadata !{i32 786485, null, metadata !"", null, i32 0, i64 0, i64 0, i64 0, i32 0, metadata !144} ; [ DW_TAG_volatile_type ]
!556 = metadata !{i32 786448, null, null, null, i32 0, i64 0, i64 0, i64 0, i32 0, metadata !557} ; [ DW_TAG_reference_type ]
!557 = metadata !{i32 786470, null, metadata !"", null, i32 0, i64 0, i64 0, i64 0, i32 0, metadata !144} ; [ DW_TAG_const_type ]
!558 = metadata !{i32 786478, i32 0, metadata !144, metadata !"operator=", metadata !"operator=", metadata !"_ZNV7ap_uintILi24EEaSERVKS0_", metadata !145, i32 271, metadata !559, i1 false, i1 false, i32 0, i32 0, null, i32 256, i1 false, null, null, i32 0, metadata !119, i32 271} ; [ DW_TAG_subprogram ]
!559 = metadata !{i32 786453, i32 0, metadata !"", i32 0, i32 0, i64 0, i64 0, i64 0, i32 0, null, metadata !560, i32 0, i32 0} ; [ DW_TAG_subroutine_type ]
!560 = metadata !{null, metadata !554, metadata !561}
!561 = metadata !{i32 786448, null, null, null, i32 0, i64 0, i64 0, i64 0, i32 0, metadata !562} ; [ DW_TAG_reference_type ]
!562 = metadata !{i32 786470, null, metadata !"", null, i32 0, i64 0, i64 0, i64 0, i32 0, metadata !555} ; [ DW_TAG_const_type ]
!563 = metadata !{i32 786478, i32 0, metadata !144, metadata !"operator=", metadata !"operator=", metadata !"_ZN7ap_uintILi24EEaSERVKS0_", metadata !145, i32 275, metadata !564, i1 false, i1 false, i32 0, i32 0, null, i32 256, i1 false, null, null, i32 0, metadata !119, i32 275} ; [ DW_TAG_subprogram ]
!564 = metadata !{i32 786453, i32 0, metadata !"", i32 0, i32 0, i64 0, i64 0, i64 0, i32 0, null, metadata !565, i32 0, i32 0} ; [ DW_TAG_subroutine_type ]
!565 = metadata !{metadata !566, metadata !502, metadata !561}
!566 = metadata !{i32 786448, null, null, null, i32 0, i64 0, i64 0, i64 0, i32 0, metadata !144} ; [ DW_TAG_reference_type ]
!567 = metadata !{i32 786478, i32 0, metadata !144, metadata !"operator=", metadata !"operator=", metadata !"_ZN7ap_uintILi24EEaSERKS0_", metadata !145, i32 280, metadata !568, i1 false, i1 false, i32 0, i32 0, null, i32 256, i1 false, null, null, i32 0, metadata !119, i32 280} ; [ DW_TAG_subprogram ]
!568 = metadata !{i32 786453, i32 0, metadata !"", i32 0, i32 0, i64 0, i64 0, i64 0, i32 0, null, metadata !569, i32 0, i32 0} ; [ DW_TAG_subroutine_type ]
!569 = metadata !{metadata !566, metadata !502, metadata !556}
!570 = metadata !{metadata !454}
!571 = metadata !{i32 786445, metadata !140, metadata !"keep", metadata !141, i32 102, i64 8, i64 8, i64 32, i32 0, metadata !572} ; [ DW_TAG_member ]
!572 = metadata !{i32 786434, null, metadata !"ap_uint<3>", metadata !145, i32 183, i64 8, i64 8, i32 0, i32 0, null, metadata !573, i32 0, null, metadata !2789} ; [ DW_TAG_class_type ]
!573 = metadata !{metadata !574, metadata !2085, metadata !2089, metadata !2095, metadata !2712, metadata !2718, metadata !2721, metadata !2724, metadata !2727, metadata !2730, metadata !2733, metadata !2736, metadata !2739, metadata !2742, metadata !2745, metadata !2748, metadata !2751, metadata !2754, metadata !2757, metadata !2760, metadata !2763, metadata !2766, metadata !2769, metadata !2772, metadata !2775, metadata !2779, metadata !2782, metadata !2786}
!574 = metadata !{i32 786460, metadata !572, null, metadata !145, i32 0, i64 0, i64 0, i64 0, i32 0, metadata !575} ; [ DW_TAG_inheritance ]
!575 = metadata !{i32 786434, null, metadata !"ap_int_base<3, false, true>", metadata !149, i32 1453, i64 8, i64 8, i32 0, i32 0, null, metadata !576, i32 0, null, metadata !2084} ; [ DW_TAG_class_type ]
!576 = metadata !{metadata !577, metadata !586, metadata !590, metadata !597, metadata !603, metadata !606, metadata !609, metadata !612, metadata !615, metadata !618, metadata !621, metadata !624, metadata !627, metadata !630, metadata !633, metadata !636, metadata !639, metadata !642, metadata !645, metadata !648, metadata !651, metadata !655, metadata !658, metadata !661, metadata !662, metadata !666, metadata !669, metadata !672, metadata !675, metadata !678, metadata !681, metadata !684, metadata !687, metadata !690, metadata !693, metadata !696, metadata !699, metadata !708, metadata !711, metadata !714, metadata !717, metadata !720, metadata !723, metadata !726, metadata !729, metadata !732, metadata !735, metadata !738, metadata !741, metadata !744, metadata !745, metadata !749, metadata !752, metadata !753, metadata !754, metadata !755, metadata !756, metadata !757, metadata !760, metadata !761, metadata !764, metadata !765, metadata !766, metadata !767, metadata !768, metadata !769, metadata !772, metadata !773, metadata !774, metadata !777, metadata !778, metadata !781, metadata !782, metadata !1289, metadata !2017, metadata !2018, metadata !2021, metadata !2022, metadata !2058, metadata !2059, metadata !2060, metadata !2061, metadata !2064, metadata !2065, metadata !2066, metadata !2067, metadata !2068, metadata !2069, metadata !2070, metadata !2071, metadata !2072, metadata !2073, metadata !2074, metadata !2075, metadata !2078, metadata !2081}
!577 = metadata !{i32 786460, metadata !575, null, metadata !149, i32 0, i64 0, i64 0, i64 0, i32 0, metadata !578} ; [ DW_TAG_inheritance ]
!578 = metadata !{i32 786434, null, metadata !"ssdm_int<3 + 1024 * 0, false>", metadata !153, i32 5, i64 8, i64 8, i32 0, i32 0, null, metadata !579, i32 0, null, metadata !309} ; [ DW_TAG_class_type ]
!579 = metadata !{metadata !580, metadata !582}
!580 = metadata !{i32 786445, metadata !578, metadata !"V", metadata !153, i32 5, i64 3, i64 4, i64 0, i32 0, metadata !581} ; [ DW_TAG_member ]
!581 = metadata !{i32 786468, null, metadata !"uint3", null, i32 0, i64 3, i64 4, i64 0, i32 0, i32 7} ; [ DW_TAG_base_type ]
!582 = metadata !{i32 786478, i32 0, metadata !578, metadata !"ssdm_int", metadata !"ssdm_int", metadata !"", metadata !153, i32 5, metadata !583, i1 false, i1 false, i32 0, i32 0, null, i32 256, i1 false, null, null, i32 0, metadata !119, i32 5} ; [ DW_TAG_subprogram ]
!583 = metadata !{i32 786453, i32 0, metadata !"", i32 0, i32 0, i64 0, i64 0, i64 0, i32 0, null, metadata !584, i32 0, i32 0} ; [ DW_TAG_subroutine_type ]
!584 = metadata !{null, metadata !585}
!585 = metadata !{i32 786447, i32 0, metadata !"", i32 0, i32 0, i64 64, i64 64, i64 0, i32 64, metadata !578} ; [ DW_TAG_pointer_type ]
!586 = metadata !{i32 786478, i32 0, metadata !575, metadata !"ap_int_base", metadata !"ap_int_base", metadata !"", metadata !149, i32 1494, metadata !587, i1 false, i1 false, i32 0, i32 0, null, i32 256, i1 false, null, null, i32 0, metadata !119, i32 1494} ; [ DW_TAG_subprogram ]
!587 = metadata !{i32 786453, i32 0, metadata !"", i32 0, i32 0, i64 0, i64 0, i64 0, i32 0, null, metadata !588, i32 0, i32 0} ; [ DW_TAG_subroutine_type ]
!588 = metadata !{null, metadata !589}
!589 = metadata !{i32 786447, i32 0, metadata !"", i32 0, i32 0, i64 64, i64 64, i64 0, i32 64, metadata !575} ; [ DW_TAG_pointer_type ]
!590 = metadata !{i32 786478, i32 0, metadata !575, metadata !"ap_int_base<3, false>", metadata !"ap_int_base<3, false>", metadata !"", metadata !149, i32 1506, metadata !591, i1 false, i1 false, i32 0, i32 0, null, i32 256, i1 false, null, metadata !595, i32 0, metadata !119, i32 1506} ; [ DW_TAG_subprogram ]
!591 = metadata !{i32 786453, i32 0, metadata !"", i32 0, i32 0, i64 0, i64 0, i64 0, i32 0, null, metadata !592, i32 0, i32 0} ; [ DW_TAG_subroutine_type ]
!592 = metadata !{null, metadata !589, metadata !593}
!593 = metadata !{i32 786448, null, null, null, i32 0, i64 0, i64 0, i64 0, i32 0, metadata !594} ; [ DW_TAG_reference_type ]
!594 = metadata !{i32 786470, null, metadata !"", null, i32 0, i64 0, i64 0, i64 0, i32 0, metadata !575} ; [ DW_TAG_const_type ]
!595 = metadata !{metadata !596, metadata !181}
!596 = metadata !{i32 786480, null, metadata !"_AP_W2", metadata !118, i64 3, null, i32 0, i32 0} ; [ DW_TAG_template_value_parameter ]
!597 = metadata !{i32 786478, i32 0, metadata !575, metadata !"ap_int_base<3, false>", metadata !"ap_int_base<3, false>", metadata !"", metadata !149, i32 1509, metadata !598, i1 false, i1 false, i32 0, i32 0, null, i32 256, i1 false, null, metadata !595, i32 0, metadata !119, i32 1509} ; [ DW_TAG_subprogram ]
!598 = metadata !{i32 786453, i32 0, metadata !"", i32 0, i32 0, i64 0, i64 0, i64 0, i32 0, null, metadata !599, i32 0, i32 0} ; [ DW_TAG_subroutine_type ]
!599 = metadata !{null, metadata !589, metadata !600}
!600 = metadata !{i32 786448, null, null, null, i32 0, i64 0, i64 0, i64 0, i32 0, metadata !601} ; [ DW_TAG_reference_type ]
!601 = metadata !{i32 786470, null, metadata !"", null, i32 0, i64 0, i64 0, i64 0, i32 0, metadata !602} ; [ DW_TAG_const_type ]
!602 = metadata !{i32 786485, null, metadata !"", null, i32 0, i64 0, i64 0, i64 0, i32 0, metadata !575} ; [ DW_TAG_volatile_type ]
!603 = metadata !{i32 786478, i32 0, metadata !575, metadata !"ap_int_base", metadata !"ap_int_base", metadata !"", metadata !149, i32 1516, metadata !604, i1 false, i1 false, i32 0, i32 0, null, i32 384, i1 false, null, null, i32 0, metadata !119, i32 1516} ; [ DW_TAG_subprogram ]
!604 = metadata !{i32 786453, i32 0, metadata !"", i32 0, i32 0, i64 0, i64 0, i64 0, i32 0, null, metadata !605, i32 0, i32 0} ; [ DW_TAG_subroutine_type ]
!605 = metadata !{null, metadata !589, metadata !169}
!606 = metadata !{i32 786478, i32 0, metadata !575, metadata !"ap_int_base", metadata !"ap_int_base", metadata !"", metadata !149, i32 1517, metadata !607, i1 false, i1 false, i32 0, i32 0, null, i32 384, i1 false, null, null, i32 0, metadata !119, i32 1517} ; [ DW_TAG_subprogram ]
!607 = metadata !{i32 786453, i32 0, metadata !"", i32 0, i32 0, i64 0, i64 0, i64 0, i32 0, null, metadata !608, i32 0, i32 0} ; [ DW_TAG_subroutine_type ]
!608 = metadata !{null, metadata !589, metadata !194}
!609 = metadata !{i32 786478, i32 0, metadata !575, metadata !"ap_int_base", metadata !"ap_int_base", metadata !"", metadata !149, i32 1518, metadata !610, i1 false, i1 false, i32 0, i32 0, null, i32 384, i1 false, null, null, i32 0, metadata !119, i32 1518} ; [ DW_TAG_subprogram ]
!610 = metadata !{i32 786453, i32 0, metadata !"", i32 0, i32 0, i64 0, i64 0, i64 0, i32 0, null, metadata !611, i32 0, i32 0} ; [ DW_TAG_subroutine_type ]
!611 = metadata !{null, metadata !589, metadata !198}
!612 = metadata !{i32 786478, i32 0, metadata !575, metadata !"ap_int_base", metadata !"ap_int_base", metadata !"", metadata !149, i32 1519, metadata !613, i1 false, i1 false, i32 0, i32 0, null, i32 384, i1 false, null, null, i32 0, metadata !119, i32 1519} ; [ DW_TAG_subprogram ]
!613 = metadata !{i32 786453, i32 0, metadata !"", i32 0, i32 0, i64 0, i64 0, i64 0, i32 0, null, metadata !614, i32 0, i32 0} ; [ DW_TAG_subroutine_type ]
!614 = metadata !{null, metadata !589, metadata !202}
!615 = metadata !{i32 786478, i32 0, metadata !575, metadata !"ap_int_base", metadata !"ap_int_base", metadata !"", metadata !149, i32 1520, metadata !616, i1 false, i1 false, i32 0, i32 0, null, i32 384, i1 false, null, null, i32 0, metadata !119, i32 1520} ; [ DW_TAG_subprogram ]
!616 = metadata !{i32 786453, i32 0, metadata !"", i32 0, i32 0, i64 0, i64 0, i64 0, i32 0, null, metadata !617, i32 0, i32 0} ; [ DW_TAG_subroutine_type ]
!617 = metadata !{null, metadata !589, metadata !206}
!618 = metadata !{i32 786478, i32 0, metadata !575, metadata !"ap_int_base", metadata !"ap_int_base", metadata !"", metadata !149, i32 1521, metadata !619, i1 false, i1 false, i32 0, i32 0, null, i32 384, i1 false, null, null, i32 0, metadata !119, i32 1521} ; [ DW_TAG_subprogram ]
!619 = metadata !{i32 786453, i32 0, metadata !"", i32 0, i32 0, i64 0, i64 0, i64 0, i32 0, null, metadata !620, i32 0, i32 0} ; [ DW_TAG_subroutine_type ]
!620 = metadata !{null, metadata !589, metadata !118}
!621 = metadata !{i32 786478, i32 0, metadata !575, metadata !"ap_int_base", metadata !"ap_int_base", metadata !"", metadata !149, i32 1522, metadata !622, i1 false, i1 false, i32 0, i32 0, null, i32 384, i1 false, null, null, i32 0, metadata !119, i32 1522} ; [ DW_TAG_subprogram ]
!622 = metadata !{i32 786453, i32 0, metadata !"", i32 0, i32 0, i64 0, i64 0, i64 0, i32 0, null, metadata !623, i32 0, i32 0} ; [ DW_TAG_subroutine_type ]
!623 = metadata !{null, metadata !589, metadata !213}
!624 = metadata !{i32 786478, i32 0, metadata !575, metadata !"ap_int_base", metadata !"ap_int_base", metadata !"", metadata !149, i32 1523, metadata !625, i1 false, i1 false, i32 0, i32 0, null, i32 384, i1 false, null, null, i32 0, metadata !119, i32 1523} ; [ DW_TAG_subprogram ]
!625 = metadata !{i32 786453, i32 0, metadata !"", i32 0, i32 0, i64 0, i64 0, i64 0, i32 0, null, metadata !626, i32 0, i32 0} ; [ DW_TAG_subroutine_type ]
!626 = metadata !{null, metadata !589, metadata !217}
!627 = metadata !{i32 786478, i32 0, metadata !575, metadata !"ap_int_base", metadata !"ap_int_base", metadata !"", metadata !149, i32 1524, metadata !628, i1 false, i1 false, i32 0, i32 0, null, i32 384, i1 false, null, null, i32 0, metadata !119, i32 1524} ; [ DW_TAG_subprogram ]
!628 = metadata !{i32 786453, i32 0, metadata !"", i32 0, i32 0, i64 0, i64 0, i64 0, i32 0, null, metadata !629, i32 0, i32 0} ; [ DW_TAG_subroutine_type ]
!629 = metadata !{null, metadata !589, metadata !221}
!630 = metadata !{i32 786478, i32 0, metadata !575, metadata !"ap_int_base", metadata !"ap_int_base", metadata !"", metadata !149, i32 1525, metadata !631, i1 false, i1 false, i32 0, i32 0, null, i32 384, i1 false, null, null, i32 0, metadata !119, i32 1525} ; [ DW_TAG_subprogram ]
!631 = metadata !{i32 786453, i32 0, metadata !"", i32 0, i32 0, i64 0, i64 0, i64 0, i32 0, null, metadata !632, i32 0, i32 0} ; [ DW_TAG_subroutine_type ]
!632 = metadata !{null, metadata !589, metadata !225}
!633 = metadata !{i32 786478, i32 0, metadata !575, metadata !"ap_int_base", metadata !"ap_int_base", metadata !"", metadata !149, i32 1526, metadata !634, i1 false, i1 false, i32 0, i32 0, null, i32 384, i1 false, null, null, i32 0, metadata !119, i32 1526} ; [ DW_TAG_subprogram ]
!634 = metadata !{i32 786453, i32 0, metadata !"", i32 0, i32 0, i64 0, i64 0, i64 0, i32 0, null, metadata !635, i32 0, i32 0} ; [ DW_TAG_subroutine_type ]
!635 = metadata !{null, metadata !589, metadata !230}
!636 = metadata !{i32 786478, i32 0, metadata !575, metadata !"ap_int_base", metadata !"ap_int_base", metadata !"", metadata !149, i32 1527, metadata !637, i1 false, i1 false, i32 0, i32 0, null, i32 384, i1 false, null, null, i32 0, metadata !119, i32 1527} ; [ DW_TAG_subprogram ]
!637 = metadata !{i32 786453, i32 0, metadata !"", i32 0, i32 0, i64 0, i64 0, i64 0, i32 0, null, metadata !638, i32 0, i32 0} ; [ DW_TAG_subroutine_type ]
!638 = metadata !{null, metadata !589, metadata !235}
!639 = metadata !{i32 786478, i32 0, metadata !575, metadata !"ap_int_base", metadata !"ap_int_base", metadata !"", metadata !149, i32 1528, metadata !640, i1 false, i1 false, i32 0, i32 0, null, i32 384, i1 false, null, null, i32 0, metadata !119, i32 1528} ; [ DW_TAG_subprogram ]
!640 = metadata !{i32 786453, i32 0, metadata !"", i32 0, i32 0, i64 0, i64 0, i64 0, i32 0, null, metadata !641, i32 0, i32 0} ; [ DW_TAG_subroutine_type ]
!641 = metadata !{null, metadata !589, metadata !240}
!642 = metadata !{i32 786478, i32 0, metadata !575, metadata !"ap_int_base", metadata !"ap_int_base", metadata !"", metadata !149, i32 1529, metadata !643, i1 false, i1 false, i32 0, i32 0, null, i32 384, i1 false, null, null, i32 0, metadata !119, i32 1529} ; [ DW_TAG_subprogram ]
!643 = metadata !{i32 786453, i32 0, metadata !"", i32 0, i32 0, i64 0, i64 0, i64 0, i32 0, null, metadata !644, i32 0, i32 0} ; [ DW_TAG_subroutine_type ]
!644 = metadata !{null, metadata !589, metadata !244}
!645 = metadata !{i32 786478, i32 0, metadata !575, metadata !"ap_int_base", metadata !"ap_int_base", metadata !"", metadata !149, i32 1556, metadata !646, i1 false, i1 false, i32 0, i32 0, null, i32 256, i1 false, null, null, i32 0, metadata !119, i32 1556} ; [ DW_TAG_subprogram ]
!646 = metadata !{i32 786453, i32 0, metadata !"", i32 0, i32 0, i64 0, i64 0, i64 0, i32 0, null, metadata !647, i32 0, i32 0} ; [ DW_TAG_subroutine_type ]
!647 = metadata !{null, metadata !589, metadata !248}
!648 = metadata !{i32 786478, i32 0, metadata !575, metadata !"ap_int_base", metadata !"ap_int_base", metadata !"", metadata !149, i32 1563, metadata !649, i1 false, i1 false, i32 0, i32 0, null, i32 256, i1 false, null, null, i32 0, metadata !119, i32 1563} ; [ DW_TAG_subprogram ]
!649 = metadata !{i32 786453, i32 0, metadata !"", i32 0, i32 0, i64 0, i64 0, i64 0, i32 0, null, metadata !650, i32 0, i32 0} ; [ DW_TAG_subroutine_type ]
!650 = metadata !{null, metadata !589, metadata !248, metadata !194}
!651 = metadata !{i32 786478, i32 0, metadata !575, metadata !"read", metadata !"read", metadata !"_ZNV11ap_int_baseILi3ELb0ELb1EE4readEv", metadata !149, i32 1584, metadata !652, i1 false, i1 false, i32 0, i32 0, null, i32 256, i1 false, null, null, i32 0, metadata !119, i32 1584} ; [ DW_TAG_subprogram ]
!652 = metadata !{i32 786453, i32 0, metadata !"", i32 0, i32 0, i64 0, i64 0, i64 0, i32 0, null, metadata !653, i32 0, i32 0} ; [ DW_TAG_subroutine_type ]
!653 = metadata !{metadata !575, metadata !654}
!654 = metadata !{i32 786447, i32 0, metadata !"", i32 0, i32 0, i64 64, i64 64, i64 0, i32 64, metadata !602} ; [ DW_TAG_pointer_type ]
!655 = metadata !{i32 786478, i32 0, metadata !575, metadata !"write", metadata !"write", metadata !"_ZNV11ap_int_baseILi3ELb0ELb1EE5writeERKS0_", metadata !149, i32 1590, metadata !656, i1 false, i1 false, i32 0, i32 0, null, i32 256, i1 false, null, null, i32 0, metadata !119, i32 1590} ; [ DW_TAG_subprogram ]
!656 = metadata !{i32 786453, i32 0, metadata !"", i32 0, i32 0, i64 0, i64 0, i64 0, i32 0, null, metadata !657, i32 0, i32 0} ; [ DW_TAG_subroutine_type ]
!657 = metadata !{null, metadata !654, metadata !593}
!658 = metadata !{i32 786478, i32 0, metadata !575, metadata !"operator=", metadata !"operator=", metadata !"_ZNV11ap_int_baseILi3ELb0ELb1EEaSERVKS0_", metadata !149, i32 1602, metadata !659, i1 false, i1 false, i32 0, i32 0, null, i32 256, i1 false, null, null, i32 0, metadata !119, i32 1602} ; [ DW_TAG_subprogram ]
!659 = metadata !{i32 786453, i32 0, metadata !"", i32 0, i32 0, i64 0, i64 0, i64 0, i32 0, null, metadata !660, i32 0, i32 0} ; [ DW_TAG_subroutine_type ]
!660 = metadata !{null, metadata !654, metadata !600}
!661 = metadata !{i32 786478, i32 0, metadata !575, metadata !"operator=", metadata !"operator=", metadata !"_ZNV11ap_int_baseILi3ELb0ELb1EEaSERKS0_", metadata !149, i32 1611, metadata !656, i1 false, i1 false, i32 0, i32 0, null, i32 256, i1 false, null, null, i32 0, metadata !119, i32 1611} ; [ DW_TAG_subprogram ]
!662 = metadata !{i32 786478, i32 0, metadata !575, metadata !"operator=", metadata !"operator=", metadata !"_ZN11ap_int_baseILi3ELb0ELb1EEaSERVKS0_", metadata !149, i32 1634, metadata !663, i1 false, i1 false, i32 0, i32 0, null, i32 256, i1 false, null, null, i32 0, metadata !119, i32 1634} ; [ DW_TAG_subprogram ]
!663 = metadata !{i32 786453, i32 0, metadata !"", i32 0, i32 0, i64 0, i64 0, i64 0, i32 0, null, metadata !664, i32 0, i32 0} ; [ DW_TAG_subroutine_type ]
!664 = metadata !{metadata !665, metadata !589, metadata !600}
!665 = metadata !{i32 786448, null, null, null, i32 0, i64 0, i64 0, i64 0, i32 0, metadata !575} ; [ DW_TAG_reference_type ]
!666 = metadata !{i32 786478, i32 0, metadata !575, metadata !"operator=", metadata !"operator=", metadata !"_ZN11ap_int_baseILi3ELb0ELb1EEaSERKS0_", metadata !149, i32 1639, metadata !667, i1 false, i1 false, i32 0, i32 0, null, i32 256, i1 false, null, null, i32 0, metadata !119, i32 1639} ; [ DW_TAG_subprogram ]
!667 = metadata !{i32 786453, i32 0, metadata !"", i32 0, i32 0, i64 0, i64 0, i64 0, i32 0, null, metadata !668, i32 0, i32 0} ; [ DW_TAG_subroutine_type ]
!668 = metadata !{metadata !665, metadata !589, metadata !593}
!669 = metadata !{i32 786478, i32 0, metadata !575, metadata !"operator=", metadata !"operator=", metadata !"_ZN11ap_int_baseILi3ELb0ELb1EEaSEPKc", metadata !149, i32 1643, metadata !670, i1 false, i1 false, i32 0, i32 0, null, i32 256, i1 false, null, null, i32 0, metadata !119, i32 1643} ; [ DW_TAG_subprogram ]
!670 = metadata !{i32 786453, i32 0, metadata !"", i32 0, i32 0, i64 0, i64 0, i64 0, i32 0, null, metadata !671, i32 0, i32 0} ; [ DW_TAG_subroutine_type ]
!671 = metadata !{metadata !665, metadata !589, metadata !248}
!672 = metadata !{i32 786478, i32 0, metadata !575, metadata !"set", metadata !"set", metadata !"_ZN11ap_int_baseILi3ELb0ELb1EE3setEPKca", metadata !149, i32 1651, metadata !673, i1 false, i1 false, i32 0, i32 0, null, i32 256, i1 false, null, null, i32 0, metadata !119, i32 1651} ; [ DW_TAG_subprogram ]
!673 = metadata !{i32 786453, i32 0, metadata !"", i32 0, i32 0, i64 0, i64 0, i64 0, i32 0, null, metadata !674, i32 0, i32 0} ; [ DW_TAG_subroutine_type ]
!674 = metadata !{metadata !665, metadata !589, metadata !248, metadata !194}
!675 = metadata !{i32 786478, i32 0, metadata !575, metadata !"operator=", metadata !"operator=", metadata !"_ZN11ap_int_baseILi3ELb0ELb1EEaSEa", metadata !149, i32 1665, metadata !676, i1 false, i1 false, i32 0, i32 0, null, i32 256, i1 false, null, null, i32 0, metadata !119, i32 1665} ; [ DW_TAG_subprogram ]
!676 = metadata !{i32 786453, i32 0, metadata !"", i32 0, i32 0, i64 0, i64 0, i64 0, i32 0, null, metadata !677, i32 0, i32 0} ; [ DW_TAG_subroutine_type ]
!677 = metadata !{metadata !665, metadata !589, metadata !194}
!678 = metadata !{i32 786478, i32 0, metadata !575, metadata !"operator=", metadata !"operator=", metadata !"_ZN11ap_int_baseILi3ELb0ELb1EEaSEh", metadata !149, i32 1666, metadata !679, i1 false, i1 false, i32 0, i32 0, null, i32 256, i1 false, null, null, i32 0, metadata !119, i32 1666} ; [ DW_TAG_subprogram ]
!679 = metadata !{i32 786453, i32 0, metadata !"", i32 0, i32 0, i64 0, i64 0, i64 0, i32 0, null, metadata !680, i32 0, i32 0} ; [ DW_TAG_subroutine_type ]
!680 = metadata !{metadata !665, metadata !589, metadata !198}
!681 = metadata !{i32 786478, i32 0, metadata !575, metadata !"operator=", metadata !"operator=", metadata !"_ZN11ap_int_baseILi3ELb0ELb1EEaSEs", metadata !149, i32 1667, metadata !682, i1 false, i1 false, i32 0, i32 0, null, i32 256, i1 false, null, null, i32 0, metadata !119, i32 1667} ; [ DW_TAG_subprogram ]
!682 = metadata !{i32 786453, i32 0, metadata !"", i32 0, i32 0, i64 0, i64 0, i64 0, i32 0, null, metadata !683, i32 0, i32 0} ; [ DW_TAG_subroutine_type ]
!683 = metadata !{metadata !665, metadata !589, metadata !202}
!684 = metadata !{i32 786478, i32 0, metadata !575, metadata !"operator=", metadata !"operator=", metadata !"_ZN11ap_int_baseILi3ELb0ELb1EEaSEt", metadata !149, i32 1668, metadata !685, i1 false, i1 false, i32 0, i32 0, null, i32 256, i1 false, null, null, i32 0, metadata !119, i32 1668} ; [ DW_TAG_subprogram ]
!685 = metadata !{i32 786453, i32 0, metadata !"", i32 0, i32 0, i64 0, i64 0, i64 0, i32 0, null, metadata !686, i32 0, i32 0} ; [ DW_TAG_subroutine_type ]
!686 = metadata !{metadata !665, metadata !589, metadata !206}
!687 = metadata !{i32 786478, i32 0, metadata !575, metadata !"operator=", metadata !"operator=", metadata !"_ZN11ap_int_baseILi3ELb0ELb1EEaSEi", metadata !149, i32 1669, metadata !688, i1 false, i1 false, i32 0, i32 0, null, i32 256, i1 false, null, null, i32 0, metadata !119, i32 1669} ; [ DW_TAG_subprogram ]
!688 = metadata !{i32 786453, i32 0, metadata !"", i32 0, i32 0, i64 0, i64 0, i64 0, i32 0, null, metadata !689, i32 0, i32 0} ; [ DW_TAG_subroutine_type ]
!689 = metadata !{metadata !665, metadata !589, metadata !118}
!690 = metadata !{i32 786478, i32 0, metadata !575, metadata !"operator=", metadata !"operator=", metadata !"_ZN11ap_int_baseILi3ELb0ELb1EEaSEj", metadata !149, i32 1670, metadata !691, i1 false, i1 false, i32 0, i32 0, null, i32 256, i1 false, null, null, i32 0, metadata !119, i32 1670} ; [ DW_TAG_subprogram ]
!691 = metadata !{i32 786453, i32 0, metadata !"", i32 0, i32 0, i64 0, i64 0, i64 0, i32 0, null, metadata !692, i32 0, i32 0} ; [ DW_TAG_subroutine_type ]
!692 = metadata !{metadata !665, metadata !589, metadata !213}
!693 = metadata !{i32 786478, i32 0, metadata !575, metadata !"operator=", metadata !"operator=", metadata !"_ZN11ap_int_baseILi3ELb0ELb1EEaSEx", metadata !149, i32 1671, metadata !694, i1 false, i1 false, i32 0, i32 0, null, i32 256, i1 false, null, null, i32 0, metadata !119, i32 1671} ; [ DW_TAG_subprogram ]
!694 = metadata !{i32 786453, i32 0, metadata !"", i32 0, i32 0, i64 0, i64 0, i64 0, i32 0, null, metadata !695, i32 0, i32 0} ; [ DW_TAG_subroutine_type ]
!695 = metadata !{metadata !665, metadata !589, metadata !225}
!696 = metadata !{i32 786478, i32 0, metadata !575, metadata !"operator=", metadata !"operator=", metadata !"_ZN11ap_int_baseILi3ELb0ELb1EEaSEy", metadata !149, i32 1672, metadata !697, i1 false, i1 false, i32 0, i32 0, null, i32 256, i1 false, null, null, i32 0, metadata !119, i32 1672} ; [ DW_TAG_subprogram ]
!697 = metadata !{i32 786453, i32 0, metadata !"", i32 0, i32 0, i64 0, i64 0, i64 0, i32 0, null, metadata !698, i32 0, i32 0} ; [ DW_TAG_subroutine_type ]
!698 = metadata !{metadata !665, metadata !589, metadata !230}
!699 = metadata !{i32 786478, i32 0, metadata !575, metadata !"operator unsigned char", metadata !"operator unsigned char", metadata !"_ZNK11ap_int_baseILi3ELb0ELb1EEcvhEv", metadata !149, i32 1710, metadata !700, i1 false, i1 false, i32 0, i32 0, null, i32 256, i1 false, null, null, i32 0, metadata !119, i32 1710} ; [ DW_TAG_subprogram ]
!700 = metadata !{i32 786453, i32 0, metadata !"", i32 0, i32 0, i64 0, i64 0, i64 0, i32 0, null, metadata !701, i32 0, i32 0} ; [ DW_TAG_subroutine_type ]
!701 = metadata !{metadata !702, metadata !707}
!702 = metadata !{i32 786454, metadata !575, metadata !"RetType", metadata !149, i32 1458, i64 0, i64 0, i64 0, i32 0, metadata !703} ; [ DW_TAG_typedef ]
!703 = metadata !{i32 786454, metadata !704, metadata !"Type", metadata !149, i32 1426, i64 0, i64 0, i64 0, i32 0, metadata !198} ; [ DW_TAG_typedef ]
!704 = metadata !{i32 786434, null, metadata !"retval<1, false>", metadata !149, i32 1425, i64 8, i64 8, i32 0, i32 0, null, metadata !308, i32 0, null, metadata !705} ; [ DW_TAG_class_type ]
!705 = metadata !{metadata !706, metadata !168}
!706 = metadata !{i32 786480, null, metadata !"_AP_N", metadata !118, i64 1, null, i32 0, i32 0} ; [ DW_TAG_template_value_parameter ]
!707 = metadata !{i32 786447, i32 0, metadata !"", i32 0, i32 0, i64 64, i64 64, i64 0, i32 64, metadata !594} ; [ DW_TAG_pointer_type ]
!708 = metadata !{i32 786478, i32 0, metadata !575, metadata !"to_bool", metadata !"to_bool", metadata !"_ZNK11ap_int_baseILi3ELb0ELb1EE7to_boolEv", metadata !149, i32 1716, metadata !709, i1 false, i1 false, i32 0, i32 0, null, i32 256, i1 false, null, null, i32 0, metadata !119, i32 1716} ; [ DW_TAG_subprogram ]
!709 = metadata !{i32 786453, i32 0, metadata !"", i32 0, i32 0, i64 0, i64 0, i64 0, i32 0, null, metadata !710, i32 0, i32 0} ; [ DW_TAG_subroutine_type ]
!710 = metadata !{metadata !169, metadata !707}
!711 = metadata !{i32 786478, i32 0, metadata !575, metadata !"to_uchar", metadata !"to_uchar", metadata !"_ZNK11ap_int_baseILi3ELb0ELb1EE8to_ucharEv", metadata !149, i32 1717, metadata !712, i1 false, i1 false, i32 0, i32 0, null, i32 256, i1 false, null, null, i32 0, metadata !119, i32 1717} ; [ DW_TAG_subprogram ]
!712 = metadata !{i32 786453, i32 0, metadata !"", i32 0, i32 0, i64 0, i64 0, i64 0, i32 0, null, metadata !713, i32 0, i32 0} ; [ DW_TAG_subroutine_type ]
!713 = metadata !{metadata !198, metadata !707}
!714 = metadata !{i32 786478, i32 0, metadata !575, metadata !"to_char", metadata !"to_char", metadata !"_ZNK11ap_int_baseILi3ELb0ELb1EE7to_charEv", metadata !149, i32 1718, metadata !715, i1 false, i1 false, i32 0, i32 0, null, i32 256, i1 false, null, null, i32 0, metadata !119, i32 1718} ; [ DW_TAG_subprogram ]
!715 = metadata !{i32 786453, i32 0, metadata !"", i32 0, i32 0, i64 0, i64 0, i64 0, i32 0, null, metadata !716, i32 0, i32 0} ; [ DW_TAG_subroutine_type ]
!716 = metadata !{metadata !194, metadata !707}
!717 = metadata !{i32 786478, i32 0, metadata !575, metadata !"to_ushort", metadata !"to_ushort", metadata !"_ZNK11ap_int_baseILi3ELb0ELb1EE9to_ushortEv", metadata !149, i32 1719, metadata !718, i1 false, i1 false, i32 0, i32 0, null, i32 256, i1 false, null, null, i32 0, metadata !119, i32 1719} ; [ DW_TAG_subprogram ]
!718 = metadata !{i32 786453, i32 0, metadata !"", i32 0, i32 0, i64 0, i64 0, i64 0, i32 0, null, metadata !719, i32 0, i32 0} ; [ DW_TAG_subroutine_type ]
!719 = metadata !{metadata !206, metadata !707}
!720 = metadata !{i32 786478, i32 0, metadata !575, metadata !"to_short", metadata !"to_short", metadata !"_ZNK11ap_int_baseILi3ELb0ELb1EE8to_shortEv", metadata !149, i32 1720, metadata !721, i1 false, i1 false, i32 0, i32 0, null, i32 256, i1 false, null, null, i32 0, metadata !119, i32 1720} ; [ DW_TAG_subprogram ]
!721 = metadata !{i32 786453, i32 0, metadata !"", i32 0, i32 0, i64 0, i64 0, i64 0, i32 0, null, metadata !722, i32 0, i32 0} ; [ DW_TAG_subroutine_type ]
!722 = metadata !{metadata !202, metadata !707}
!723 = metadata !{i32 786478, i32 0, metadata !575, metadata !"to_int", metadata !"to_int", metadata !"_ZNK11ap_int_baseILi3ELb0ELb1EE6to_intEv", metadata !149, i32 1721, metadata !724, i1 false, i1 false, i32 0, i32 0, null, i32 256, i1 false, null, null, i32 0, metadata !119, i32 1721} ; [ DW_TAG_subprogram ]
!724 = metadata !{i32 786453, i32 0, metadata !"", i32 0, i32 0, i64 0, i64 0, i64 0, i32 0, null, metadata !725, i32 0, i32 0} ; [ DW_TAG_subroutine_type ]
!725 = metadata !{metadata !118, metadata !707}
!726 = metadata !{i32 786478, i32 0, metadata !575, metadata !"to_uint", metadata !"to_uint", metadata !"_ZNK11ap_int_baseILi3ELb0ELb1EE7to_uintEv", metadata !149, i32 1722, metadata !727, i1 false, i1 false, i32 0, i32 0, null, i32 256, i1 false, null, null, i32 0, metadata !119, i32 1722} ; [ DW_TAG_subprogram ]
!727 = metadata !{i32 786453, i32 0, metadata !"", i32 0, i32 0, i64 0, i64 0, i64 0, i32 0, null, metadata !728, i32 0, i32 0} ; [ DW_TAG_subroutine_type ]
!728 = metadata !{metadata !213, metadata !707}
!729 = metadata !{i32 786478, i32 0, metadata !575, metadata !"to_long", metadata !"to_long", metadata !"_ZNK11ap_int_baseILi3ELb0ELb1EE7to_longEv", metadata !149, i32 1723, metadata !730, i1 false, i1 false, i32 0, i32 0, null, i32 256, i1 false, null, null, i32 0, metadata !119, i32 1723} ; [ DW_TAG_subprogram ]
!730 = metadata !{i32 786453, i32 0, metadata !"", i32 0, i32 0, i64 0, i64 0, i64 0, i32 0, null, metadata !731, i32 0, i32 0} ; [ DW_TAG_subroutine_type ]
!731 = metadata !{metadata !217, metadata !707}
!732 = metadata !{i32 786478, i32 0, metadata !575, metadata !"to_ulong", metadata !"to_ulong", metadata !"_ZNK11ap_int_baseILi3ELb0ELb1EE8to_ulongEv", metadata !149, i32 1724, metadata !733, i1 false, i1 false, i32 0, i32 0, null, i32 256, i1 false, null, null, i32 0, metadata !119, i32 1724} ; [ DW_TAG_subprogram ]
!733 = metadata !{i32 786453, i32 0, metadata !"", i32 0, i32 0, i64 0, i64 0, i64 0, i32 0, null, metadata !734, i32 0, i32 0} ; [ DW_TAG_subroutine_type ]
!734 = metadata !{metadata !221, metadata !707}
!735 = metadata !{i32 786478, i32 0, metadata !575, metadata !"to_int64", metadata !"to_int64", metadata !"_ZNK11ap_int_baseILi3ELb0ELb1EE8to_int64Ev", metadata !149, i32 1725, metadata !736, i1 false, i1 false, i32 0, i32 0, null, i32 256, i1 false, null, null, i32 0, metadata !119, i32 1725} ; [ DW_TAG_subprogram ]
!736 = metadata !{i32 786453, i32 0, metadata !"", i32 0, i32 0, i64 0, i64 0, i64 0, i32 0, null, metadata !737, i32 0, i32 0} ; [ DW_TAG_subroutine_type ]
!737 = metadata !{metadata !225, metadata !707}
!738 = metadata !{i32 786478, i32 0, metadata !575, metadata !"to_uint64", metadata !"to_uint64", metadata !"_ZNK11ap_int_baseILi3ELb0ELb1EE9to_uint64Ev", metadata !149, i32 1726, metadata !739, i1 false, i1 false, i32 0, i32 0, null, i32 256, i1 false, null, null, i32 0, metadata !119, i32 1726} ; [ DW_TAG_subprogram ]
!739 = metadata !{i32 786453, i32 0, metadata !"", i32 0, i32 0, i64 0, i64 0, i64 0, i32 0, null, metadata !740, i32 0, i32 0} ; [ DW_TAG_subroutine_type ]
!740 = metadata !{metadata !230, metadata !707}
!741 = metadata !{i32 786478, i32 0, metadata !575, metadata !"to_double", metadata !"to_double", metadata !"_ZNK11ap_int_baseILi3ELb0ELb1EE9to_doubleEv", metadata !149, i32 1727, metadata !742, i1 false, i1 false, i32 0, i32 0, null, i32 256, i1 false, null, null, i32 0, metadata !119, i32 1727} ; [ DW_TAG_subprogram ]
!742 = metadata !{i32 786453, i32 0, metadata !"", i32 0, i32 0, i64 0, i64 0, i64 0, i32 0, null, metadata !743, i32 0, i32 0} ; [ DW_TAG_subroutine_type ]
!743 = metadata !{metadata !244, metadata !707}
!744 = metadata !{i32 786478, i32 0, metadata !575, metadata !"length", metadata !"length", metadata !"_ZNK11ap_int_baseILi3ELb0ELb1EE6lengthEv", metadata !149, i32 1741, metadata !724, i1 false, i1 false, i32 0, i32 0, null, i32 256, i1 false, null, null, i32 0, metadata !119, i32 1741} ; [ DW_TAG_subprogram ]
!745 = metadata !{i32 786478, i32 0, metadata !575, metadata !"length", metadata !"length", metadata !"_ZNVK11ap_int_baseILi3ELb0ELb1EE6lengthEv", metadata !149, i32 1742, metadata !746, i1 false, i1 false, i32 0, i32 0, null, i32 256, i1 false, null, null, i32 0, metadata !119, i32 1742} ; [ DW_TAG_subprogram ]
!746 = metadata !{i32 786453, i32 0, metadata !"", i32 0, i32 0, i64 0, i64 0, i64 0, i32 0, null, metadata !747, i32 0, i32 0} ; [ DW_TAG_subroutine_type ]
!747 = metadata !{metadata !118, metadata !748}
!748 = metadata !{i32 786447, i32 0, metadata !"", i32 0, i32 0, i64 64, i64 64, i64 0, i32 64, metadata !601} ; [ DW_TAG_pointer_type ]
!749 = metadata !{i32 786478, i32 0, metadata !575, metadata !"reverse", metadata !"reverse", metadata !"_ZN11ap_int_baseILi3ELb0ELb1EE7reverseEv", metadata !149, i32 1747, metadata !750, i1 false, i1 false, i32 0, i32 0, null, i32 256, i1 false, null, null, i32 0, metadata !119, i32 1747} ; [ DW_TAG_subprogram ]
!750 = metadata !{i32 786453, i32 0, metadata !"", i32 0, i32 0, i64 0, i64 0, i64 0, i32 0, null, metadata !751, i32 0, i32 0} ; [ DW_TAG_subroutine_type ]
!751 = metadata !{metadata !665, metadata !589}
!752 = metadata !{i32 786478, i32 0, metadata !575, metadata !"iszero", metadata !"iszero", metadata !"_ZNK11ap_int_baseILi3ELb0ELb1EE6iszeroEv", metadata !149, i32 1753, metadata !709, i1 false, i1 false, i32 0, i32 0, null, i32 256, i1 false, null, null, i32 0, metadata !119, i32 1753} ; [ DW_TAG_subprogram ]
!753 = metadata !{i32 786478, i32 0, metadata !575, metadata !"is_zero", metadata !"is_zero", metadata !"_ZNK11ap_int_baseILi3ELb0ELb1EE7is_zeroEv", metadata !149, i32 1758, metadata !709, i1 false, i1 false, i32 0, i32 0, null, i32 256, i1 false, null, null, i32 0, metadata !119, i32 1758} ; [ DW_TAG_subprogram ]
!754 = metadata !{i32 786478, i32 0, metadata !575, metadata !"sign", metadata !"sign", metadata !"_ZNK11ap_int_baseILi3ELb0ELb1EE4signEv", metadata !149, i32 1763, metadata !709, i1 false, i1 false, i32 0, i32 0, null, i32 256, i1 false, null, null, i32 0, metadata !119, i32 1763} ; [ DW_TAG_subprogram ]
!755 = metadata !{i32 786478, i32 0, metadata !575, metadata !"clear", metadata !"clear", metadata !"_ZN11ap_int_baseILi3ELb0ELb1EE5clearEi", metadata !149, i32 1771, metadata !619, i1 false, i1 false, i32 0, i32 0, null, i32 256, i1 false, null, null, i32 0, metadata !119, i32 1771} ; [ DW_TAG_subprogram ]
!756 = metadata !{i32 786478, i32 0, metadata !575, metadata !"invert", metadata !"invert", metadata !"_ZN11ap_int_baseILi3ELb0ELb1EE6invertEi", metadata !149, i32 1777, metadata !619, i1 false, i1 false, i32 0, i32 0, null, i32 256, i1 false, null, null, i32 0, metadata !119, i32 1777} ; [ DW_TAG_subprogram ]
!757 = metadata !{i32 786478, i32 0, metadata !575, metadata !"test", metadata !"test", metadata !"_ZNK11ap_int_baseILi3ELb0ELb1EE4testEi", metadata !149, i32 1785, metadata !758, i1 false, i1 false, i32 0, i32 0, null, i32 256, i1 false, null, null, i32 0, metadata !119, i32 1785} ; [ DW_TAG_subprogram ]
!758 = metadata !{i32 786453, i32 0, metadata !"", i32 0, i32 0, i64 0, i64 0, i64 0, i32 0, null, metadata !759, i32 0, i32 0} ; [ DW_TAG_subroutine_type ]
!759 = metadata !{metadata !169, metadata !707, metadata !118}
!760 = metadata !{i32 786478, i32 0, metadata !575, metadata !"set", metadata !"set", metadata !"_ZN11ap_int_baseILi3ELb0ELb1EE3setEi", metadata !149, i32 1791, metadata !619, i1 false, i1 false, i32 0, i32 0, null, i32 256, i1 false, null, null, i32 0, metadata !119, i32 1791} ; [ DW_TAG_subprogram ]
!761 = metadata !{i32 786478, i32 0, metadata !575, metadata !"set", metadata !"set", metadata !"_ZN11ap_int_baseILi3ELb0ELb1EE3setEib", metadata !149, i32 1797, metadata !762, i1 false, i1 false, i32 0, i32 0, null, i32 256, i1 false, null, null, i32 0, metadata !119, i32 1797} ; [ DW_TAG_subprogram ]
!762 = metadata !{i32 786453, i32 0, metadata !"", i32 0, i32 0, i64 0, i64 0, i64 0, i32 0, null, metadata !763, i32 0, i32 0} ; [ DW_TAG_subroutine_type ]
!763 = metadata !{null, metadata !589, metadata !118, metadata !169}
!764 = metadata !{i32 786478, i32 0, metadata !575, metadata !"lrotate", metadata !"lrotate", metadata !"_ZN11ap_int_baseILi3ELb0ELb1EE7lrotateEi", metadata !149, i32 1804, metadata !619, i1 false, i1 false, i32 0, i32 0, null, i32 256, i1 false, null, null, i32 0, metadata !119, i32 1804} ; [ DW_TAG_subprogram ]
!765 = metadata !{i32 786478, i32 0, metadata !575, metadata !"rrotate", metadata !"rrotate", metadata !"_ZN11ap_int_baseILi3ELb0ELb1EE7rrotateEi", metadata !149, i32 1813, metadata !619, i1 false, i1 false, i32 0, i32 0, null, i32 256, i1 false, null, null, i32 0, metadata !119, i32 1813} ; [ DW_TAG_subprogram ]
!766 = metadata !{i32 786478, i32 0, metadata !575, metadata !"set_bit", metadata !"set_bit", metadata !"_ZN11ap_int_baseILi3ELb0ELb1EE7set_bitEib", metadata !149, i32 1821, metadata !762, i1 false, i1 false, i32 0, i32 0, null, i32 256, i1 false, null, null, i32 0, metadata !119, i32 1821} ; [ DW_TAG_subprogram ]
!767 = metadata !{i32 786478, i32 0, metadata !575, metadata !"get_bit", metadata !"get_bit", metadata !"_ZNK11ap_int_baseILi3ELb0ELb1EE7get_bitEi", metadata !149, i32 1826, metadata !758, i1 false, i1 false, i32 0, i32 0, null, i32 256, i1 false, null, null, i32 0, metadata !119, i32 1826} ; [ DW_TAG_subprogram ]
!768 = metadata !{i32 786478, i32 0, metadata !575, metadata !"b_not", metadata !"b_not", metadata !"_ZN11ap_int_baseILi3ELb0ELb1EE5b_notEv", metadata !149, i32 1831, metadata !587, i1 false, i1 false, i32 0, i32 0, null, i32 256, i1 false, null, null, i32 0, metadata !119, i32 1831} ; [ DW_TAG_subprogram ]
!769 = metadata !{i32 786478, i32 0, metadata !575, metadata !"countLeadingZeros", metadata !"countLeadingZeros", metadata !"_ZN11ap_int_baseILi3ELb0ELb1EE17countLeadingZerosEv", metadata !149, i32 1838, metadata !770, i1 false, i1 false, i32 0, i32 0, null, i32 256, i1 false, null, null, i32 0, metadata !119, i32 1838} ; [ DW_TAG_subprogram ]
!770 = metadata !{i32 786453, i32 0, metadata !"", i32 0, i32 0, i64 0, i64 0, i64 0, i32 0, null, metadata !771, i32 0, i32 0} ; [ DW_TAG_subroutine_type ]
!771 = metadata !{metadata !118, metadata !589}
!772 = metadata !{i32 786478, i32 0, metadata !575, metadata !"operator++", metadata !"operator++", metadata !"_ZN11ap_int_baseILi3ELb0ELb1EEppEv", metadata !149, i32 1895, metadata !750, i1 false, i1 false, i32 0, i32 0, null, i32 256, i1 false, null, null, i32 0, metadata !119, i32 1895} ; [ DW_TAG_subprogram ]
!773 = metadata !{i32 786478, i32 0, metadata !575, metadata !"operator--", metadata !"operator--", metadata !"_ZN11ap_int_baseILi3ELb0ELb1EEmmEv", metadata !149, i32 1899, metadata !750, i1 false, i1 false, i32 0, i32 0, null, i32 256, i1 false, null, null, i32 0, metadata !119, i32 1899} ; [ DW_TAG_subprogram ]
!774 = metadata !{i32 786478, i32 0, metadata !575, metadata !"operator++", metadata !"operator++", metadata !"_ZN11ap_int_baseILi3ELb0ELb1EEppEi", metadata !149, i32 1907, metadata !775, i1 false, i1 false, i32 0, i32 0, null, i32 256, i1 false, null, null, i32 0, metadata !119, i32 1907} ; [ DW_TAG_subprogram ]
!775 = metadata !{i32 786453, i32 0, metadata !"", i32 0, i32 0, i64 0, i64 0, i64 0, i32 0, null, metadata !776, i32 0, i32 0} ; [ DW_TAG_subroutine_type ]
!776 = metadata !{metadata !594, metadata !589, metadata !118}
!777 = metadata !{i32 786478, i32 0, metadata !575, metadata !"operator--", metadata !"operator--", metadata !"_ZN11ap_int_baseILi3ELb0ELb1EEmmEi", metadata !149, i32 1912, metadata !775, i1 false, i1 false, i32 0, i32 0, null, i32 256, i1 false, null, null, i32 0, metadata !119, i32 1912} ; [ DW_TAG_subprogram ]
!778 = metadata !{i32 786478, i32 0, metadata !575, metadata !"operator+", metadata !"operator+", metadata !"_ZNK11ap_int_baseILi3ELb0ELb1EEpsEv", metadata !149, i32 1921, metadata !779, i1 false, i1 false, i32 0, i32 0, null, i32 256, i1 false, null, null, i32 0, metadata !119, i32 1921} ; [ DW_TAG_subprogram ]
!779 = metadata !{i32 786453, i32 0, metadata !"", i32 0, i32 0, i64 0, i64 0, i64 0, i32 0, null, metadata !780, i32 0, i32 0} ; [ DW_TAG_subroutine_type ]
!780 = metadata !{metadata !575, metadata !707}
!781 = metadata !{i32 786478, i32 0, metadata !575, metadata !"operator!", metadata !"operator!", metadata !"_ZNK11ap_int_baseILi3ELb0ELb1EEntEv", metadata !149, i32 1927, metadata !709, i1 false, i1 false, i32 0, i32 0, null, i32 256, i1 false, null, null, i32 0, metadata !119, i32 1927} ; [ DW_TAG_subprogram ]
!782 = metadata !{i32 786478, i32 0, metadata !575, metadata !"operator-", metadata !"operator-", metadata !"_ZNK11ap_int_baseILi3ELb0ELb1EEngEv", metadata !149, i32 1932, metadata !783, i1 false, i1 false, i32 0, i32 0, null, i32 256, i1 false, null, null, i32 0, metadata !119, i32 1932} ; [ DW_TAG_subprogram ]
!783 = metadata !{i32 786453, i32 0, metadata !"", i32 0, i32 0, i64 0, i64 0, i64 0, i32 0, null, metadata !784, i32 0, i32 0} ; [ DW_TAG_subroutine_type ]
!784 = metadata !{metadata !785, metadata !707}
!785 = metadata !{i32 786434, null, metadata !"ap_int_base<4, true, true>", metadata !149, i32 1453, i64 8, i64 8, i32 0, i32 0, null, metadata !786, i32 0, null, metadata !1287} ; [ DW_TAG_class_type ]
!786 = metadata !{metadata !787, metadata !799, metadata !803, metadata !811, metadata !817, metadata !820, metadata !823, metadata !826, metadata !829, metadata !832, metadata !835, metadata !838, metadata !841, metadata !844, metadata !847, metadata !850, metadata !853, metadata !856, metadata !859, metadata !862, metadata !865, metadata !869, metadata !872, metadata !875, metadata !876, metadata !880, metadata !883, metadata !886, metadata !889, metadata !892, metadata !895, metadata !898, metadata !901, metadata !904, metadata !907, metadata !910, metadata !913, metadata !921, metadata !924, metadata !927, metadata !930, metadata !933, metadata !936, metadata !939, metadata !942, metadata !945, metadata !948, metadata !951, metadata !954, metadata !957, metadata !958, metadata !962, metadata !965, metadata !966, metadata !967, metadata !968, metadata !969, metadata !970, metadata !973, metadata !974, metadata !977, metadata !978, metadata !979, metadata !980, metadata !981, metadata !982, metadata !985, metadata !986, metadata !987, metadata !990, metadata !991, metadata !994, metadata !995, metadata !1248, metadata !1252, metadata !1253, metadata !1256, metadata !1257, metadata !1261, metadata !1262, metadata !1263, metadata !1264, metadata !1267, metadata !1268, metadata !1269, metadata !1270, metadata !1271, metadata !1272, metadata !1273, metadata !1274, metadata !1275, metadata !1276, metadata !1277, metadata !1278, metadata !1281, metadata !1284}
!787 = metadata !{i32 786460, metadata !785, null, metadata !149, i32 0, i64 0, i64 0, i64 0, i32 0, metadata !788} ; [ DW_TAG_inheritance ]
!788 = metadata !{i32 786434, null, metadata !"ssdm_int<4 + 1024 * 0, true>", metadata !153, i32 6, i64 8, i64 8, i32 0, i32 0, null, metadata !789, i32 0, null, metadata !796} ; [ DW_TAG_class_type ]
!789 = metadata !{metadata !790, metadata !792}
!790 = metadata !{i32 786445, metadata !788, metadata !"V", metadata !153, i32 6, i64 4, i64 4, i64 0, i32 0, metadata !791} ; [ DW_TAG_member ]
!791 = metadata !{i32 786468, null, metadata !"int4", null, i32 0, i64 4, i64 4, i64 0, i32 0, i32 5} ; [ DW_TAG_base_type ]
!792 = metadata !{i32 786478, i32 0, metadata !788, metadata !"ssdm_int", metadata !"ssdm_int", metadata !"", metadata !153, i32 6, metadata !793, i1 false, i1 false, i32 0, i32 0, null, i32 256, i1 false, null, null, i32 0, metadata !119, i32 6} ; [ DW_TAG_subprogram ]
!793 = metadata !{i32 786453, i32 0, metadata !"", i32 0, i32 0, i64 0, i64 0, i64 0, i32 0, null, metadata !794, i32 0, i32 0} ; [ DW_TAG_subroutine_type ]
!794 = metadata !{null, metadata !795}
!795 = metadata !{i32 786447, i32 0, metadata !"", i32 0, i32 0, i64 64, i64 64, i64 0, i32 64, metadata !788} ; [ DW_TAG_pointer_type ]
!796 = metadata !{metadata !797, metadata !798}
!797 = metadata !{i32 786480, null, metadata !"_AP_N", metadata !118, i64 4, null, i32 0, i32 0} ; [ DW_TAG_template_value_parameter ]
!798 = metadata !{i32 786480, null, metadata !"_AP_S", metadata !169, i64 1, null, i32 0, i32 0} ; [ DW_TAG_template_value_parameter ]
!799 = metadata !{i32 786478, i32 0, metadata !785, metadata !"ap_int_base", metadata !"ap_int_base", metadata !"", metadata !149, i32 1494, metadata !800, i1 false, i1 false, i32 0, i32 0, null, i32 256, i1 false, null, null, i32 0, metadata !119, i32 1494} ; [ DW_TAG_subprogram ]
!800 = metadata !{i32 786453, i32 0, metadata !"", i32 0, i32 0, i64 0, i64 0, i64 0, i32 0, null, metadata !801, i32 0, i32 0} ; [ DW_TAG_subroutine_type ]
!801 = metadata !{null, metadata !802}
!802 = metadata !{i32 786447, i32 0, metadata !"", i32 0, i32 0, i64 64, i64 64, i64 0, i32 64, metadata !785} ; [ DW_TAG_pointer_type ]
!803 = metadata !{i32 786478, i32 0, metadata !785, metadata !"ap_int_base<4, true>", metadata !"ap_int_base<4, true>", metadata !"", metadata !149, i32 1506, metadata !804, i1 false, i1 false, i32 0, i32 0, null, i32 256, i1 false, null, metadata !808, i32 0, metadata !119, i32 1506} ; [ DW_TAG_subprogram ]
!804 = metadata !{i32 786453, i32 0, metadata !"", i32 0, i32 0, i64 0, i64 0, i64 0, i32 0, null, metadata !805, i32 0, i32 0} ; [ DW_TAG_subroutine_type ]
!805 = metadata !{null, metadata !802, metadata !806}
!806 = metadata !{i32 786448, null, null, null, i32 0, i64 0, i64 0, i64 0, i32 0, metadata !807} ; [ DW_TAG_reference_type ]
!807 = metadata !{i32 786470, null, metadata !"", null, i32 0, i64 0, i64 0, i64 0, i32 0, metadata !785} ; [ DW_TAG_const_type ]
!808 = metadata !{metadata !809, metadata !810}
!809 = metadata !{i32 786480, null, metadata !"_AP_W2", metadata !118, i64 4, null, i32 0, i32 0} ; [ DW_TAG_template_value_parameter ]
!810 = metadata !{i32 786480, null, metadata !"_AP_S2", metadata !169, i64 1, null, i32 0, i32 0} ; [ DW_TAG_template_value_parameter ]
!811 = metadata !{i32 786478, i32 0, metadata !785, metadata !"ap_int_base<4, true>", metadata !"ap_int_base<4, true>", metadata !"", metadata !149, i32 1509, metadata !812, i1 false, i1 false, i32 0, i32 0, null, i32 256, i1 false, null, metadata !808, i32 0, metadata !119, i32 1509} ; [ DW_TAG_subprogram ]
!812 = metadata !{i32 786453, i32 0, metadata !"", i32 0, i32 0, i64 0, i64 0, i64 0, i32 0, null, metadata !813, i32 0, i32 0} ; [ DW_TAG_subroutine_type ]
!813 = metadata !{null, metadata !802, metadata !814}
!814 = metadata !{i32 786448, null, null, null, i32 0, i64 0, i64 0, i64 0, i32 0, metadata !815} ; [ DW_TAG_reference_type ]
!815 = metadata !{i32 786470, null, metadata !"", null, i32 0, i64 0, i64 0, i64 0, i32 0, metadata !816} ; [ DW_TAG_const_type ]
!816 = metadata !{i32 786485, null, metadata !"", null, i32 0, i64 0, i64 0, i64 0, i32 0, metadata !785} ; [ DW_TAG_volatile_type ]
!817 = metadata !{i32 786478, i32 0, metadata !785, metadata !"ap_int_base", metadata !"ap_int_base", metadata !"", metadata !149, i32 1516, metadata !818, i1 false, i1 false, i32 0, i32 0, null, i32 384, i1 false, null, null, i32 0, metadata !119, i32 1516} ; [ DW_TAG_subprogram ]
!818 = metadata !{i32 786453, i32 0, metadata !"", i32 0, i32 0, i64 0, i64 0, i64 0, i32 0, null, metadata !819, i32 0, i32 0} ; [ DW_TAG_subroutine_type ]
!819 = metadata !{null, metadata !802, metadata !169}
!820 = metadata !{i32 786478, i32 0, metadata !785, metadata !"ap_int_base", metadata !"ap_int_base", metadata !"", metadata !149, i32 1517, metadata !821, i1 false, i1 false, i32 0, i32 0, null, i32 384, i1 false, null, null, i32 0, metadata !119, i32 1517} ; [ DW_TAG_subprogram ]
!821 = metadata !{i32 786453, i32 0, metadata !"", i32 0, i32 0, i64 0, i64 0, i64 0, i32 0, null, metadata !822, i32 0, i32 0} ; [ DW_TAG_subroutine_type ]
!822 = metadata !{null, metadata !802, metadata !194}
!823 = metadata !{i32 786478, i32 0, metadata !785, metadata !"ap_int_base", metadata !"ap_int_base", metadata !"", metadata !149, i32 1518, metadata !824, i1 false, i1 false, i32 0, i32 0, null, i32 384, i1 false, null, null, i32 0, metadata !119, i32 1518} ; [ DW_TAG_subprogram ]
!824 = metadata !{i32 786453, i32 0, metadata !"", i32 0, i32 0, i64 0, i64 0, i64 0, i32 0, null, metadata !825, i32 0, i32 0} ; [ DW_TAG_subroutine_type ]
!825 = metadata !{null, metadata !802, metadata !198}
!826 = metadata !{i32 786478, i32 0, metadata !785, metadata !"ap_int_base", metadata !"ap_int_base", metadata !"", metadata !149, i32 1519, metadata !827, i1 false, i1 false, i32 0, i32 0, null, i32 384, i1 false, null, null, i32 0, metadata !119, i32 1519} ; [ DW_TAG_subprogram ]
!827 = metadata !{i32 786453, i32 0, metadata !"", i32 0, i32 0, i64 0, i64 0, i64 0, i32 0, null, metadata !828, i32 0, i32 0} ; [ DW_TAG_subroutine_type ]
!828 = metadata !{null, metadata !802, metadata !202}
!829 = metadata !{i32 786478, i32 0, metadata !785, metadata !"ap_int_base", metadata !"ap_int_base", metadata !"", metadata !149, i32 1520, metadata !830, i1 false, i1 false, i32 0, i32 0, null, i32 384, i1 false, null, null, i32 0, metadata !119, i32 1520} ; [ DW_TAG_subprogram ]
!830 = metadata !{i32 786453, i32 0, metadata !"", i32 0, i32 0, i64 0, i64 0, i64 0, i32 0, null, metadata !831, i32 0, i32 0} ; [ DW_TAG_subroutine_type ]
!831 = metadata !{null, metadata !802, metadata !206}
!832 = metadata !{i32 786478, i32 0, metadata !785, metadata !"ap_int_base", metadata !"ap_int_base", metadata !"", metadata !149, i32 1521, metadata !833, i1 false, i1 false, i32 0, i32 0, null, i32 384, i1 false, null, null, i32 0, metadata !119, i32 1521} ; [ DW_TAG_subprogram ]
!833 = metadata !{i32 786453, i32 0, metadata !"", i32 0, i32 0, i64 0, i64 0, i64 0, i32 0, null, metadata !834, i32 0, i32 0} ; [ DW_TAG_subroutine_type ]
!834 = metadata !{null, metadata !802, metadata !118}
!835 = metadata !{i32 786478, i32 0, metadata !785, metadata !"ap_int_base", metadata !"ap_int_base", metadata !"", metadata !149, i32 1522, metadata !836, i1 false, i1 false, i32 0, i32 0, null, i32 384, i1 false, null, null, i32 0, metadata !119, i32 1522} ; [ DW_TAG_subprogram ]
!836 = metadata !{i32 786453, i32 0, metadata !"", i32 0, i32 0, i64 0, i64 0, i64 0, i32 0, null, metadata !837, i32 0, i32 0} ; [ DW_TAG_subroutine_type ]
!837 = metadata !{null, metadata !802, metadata !213}
!838 = metadata !{i32 786478, i32 0, metadata !785, metadata !"ap_int_base", metadata !"ap_int_base", metadata !"", metadata !149, i32 1523, metadata !839, i1 false, i1 false, i32 0, i32 0, null, i32 384, i1 false, null, null, i32 0, metadata !119, i32 1523} ; [ DW_TAG_subprogram ]
!839 = metadata !{i32 786453, i32 0, metadata !"", i32 0, i32 0, i64 0, i64 0, i64 0, i32 0, null, metadata !840, i32 0, i32 0} ; [ DW_TAG_subroutine_type ]
!840 = metadata !{null, metadata !802, metadata !217}
!841 = metadata !{i32 786478, i32 0, metadata !785, metadata !"ap_int_base", metadata !"ap_int_base", metadata !"", metadata !149, i32 1524, metadata !842, i1 false, i1 false, i32 0, i32 0, null, i32 384, i1 false, null, null, i32 0, metadata !119, i32 1524} ; [ DW_TAG_subprogram ]
!842 = metadata !{i32 786453, i32 0, metadata !"", i32 0, i32 0, i64 0, i64 0, i64 0, i32 0, null, metadata !843, i32 0, i32 0} ; [ DW_TAG_subroutine_type ]
!843 = metadata !{null, metadata !802, metadata !221}
!844 = metadata !{i32 786478, i32 0, metadata !785, metadata !"ap_int_base", metadata !"ap_int_base", metadata !"", metadata !149, i32 1525, metadata !845, i1 false, i1 false, i32 0, i32 0, null, i32 384, i1 false, null, null, i32 0, metadata !119, i32 1525} ; [ DW_TAG_subprogram ]
!845 = metadata !{i32 786453, i32 0, metadata !"", i32 0, i32 0, i64 0, i64 0, i64 0, i32 0, null, metadata !846, i32 0, i32 0} ; [ DW_TAG_subroutine_type ]
!846 = metadata !{null, metadata !802, metadata !225}
!847 = metadata !{i32 786478, i32 0, metadata !785, metadata !"ap_int_base", metadata !"ap_int_base", metadata !"", metadata !149, i32 1526, metadata !848, i1 false, i1 false, i32 0, i32 0, null, i32 384, i1 false, null, null, i32 0, metadata !119, i32 1526} ; [ DW_TAG_subprogram ]
!848 = metadata !{i32 786453, i32 0, metadata !"", i32 0, i32 0, i64 0, i64 0, i64 0, i32 0, null, metadata !849, i32 0, i32 0} ; [ DW_TAG_subroutine_type ]
!849 = metadata !{null, metadata !802, metadata !230}
!850 = metadata !{i32 786478, i32 0, metadata !785, metadata !"ap_int_base", metadata !"ap_int_base", metadata !"", metadata !149, i32 1527, metadata !851, i1 false, i1 false, i32 0, i32 0, null, i32 384, i1 false, null, null, i32 0, metadata !119, i32 1527} ; [ DW_TAG_subprogram ]
!851 = metadata !{i32 786453, i32 0, metadata !"", i32 0, i32 0, i64 0, i64 0, i64 0, i32 0, null, metadata !852, i32 0, i32 0} ; [ DW_TAG_subroutine_type ]
!852 = metadata !{null, metadata !802, metadata !235}
!853 = metadata !{i32 786478, i32 0, metadata !785, metadata !"ap_int_base", metadata !"ap_int_base", metadata !"", metadata !149, i32 1528, metadata !854, i1 false, i1 false, i32 0, i32 0, null, i32 384, i1 false, null, null, i32 0, metadata !119, i32 1528} ; [ DW_TAG_subprogram ]
!854 = metadata !{i32 786453, i32 0, metadata !"", i32 0, i32 0, i64 0, i64 0, i64 0, i32 0, null, metadata !855, i32 0, i32 0} ; [ DW_TAG_subroutine_type ]
!855 = metadata !{null, metadata !802, metadata !240}
!856 = metadata !{i32 786478, i32 0, metadata !785, metadata !"ap_int_base", metadata !"ap_int_base", metadata !"", metadata !149, i32 1529, metadata !857, i1 false, i1 false, i32 0, i32 0, null, i32 384, i1 false, null, null, i32 0, metadata !119, i32 1529} ; [ DW_TAG_subprogram ]
!857 = metadata !{i32 786453, i32 0, metadata !"", i32 0, i32 0, i64 0, i64 0, i64 0, i32 0, null, metadata !858, i32 0, i32 0} ; [ DW_TAG_subroutine_type ]
!858 = metadata !{null, metadata !802, metadata !244}
!859 = metadata !{i32 786478, i32 0, metadata !785, metadata !"ap_int_base", metadata !"ap_int_base", metadata !"", metadata !149, i32 1556, metadata !860, i1 false, i1 false, i32 0, i32 0, null, i32 256, i1 false, null, null, i32 0, metadata !119, i32 1556} ; [ DW_TAG_subprogram ]
!860 = metadata !{i32 786453, i32 0, metadata !"", i32 0, i32 0, i64 0, i64 0, i64 0, i32 0, null, metadata !861, i32 0, i32 0} ; [ DW_TAG_subroutine_type ]
!861 = metadata !{null, metadata !802, metadata !248}
!862 = metadata !{i32 786478, i32 0, metadata !785, metadata !"ap_int_base", metadata !"ap_int_base", metadata !"", metadata !149, i32 1563, metadata !863, i1 false, i1 false, i32 0, i32 0, null, i32 256, i1 false, null, null, i32 0, metadata !119, i32 1563} ; [ DW_TAG_subprogram ]
!863 = metadata !{i32 786453, i32 0, metadata !"", i32 0, i32 0, i64 0, i64 0, i64 0, i32 0, null, metadata !864, i32 0, i32 0} ; [ DW_TAG_subroutine_type ]
!864 = metadata !{null, metadata !802, metadata !248, metadata !194}
!865 = metadata !{i32 786478, i32 0, metadata !785, metadata !"read", metadata !"read", metadata !"_ZNV11ap_int_baseILi4ELb1ELb1EE4readEv", metadata !149, i32 1584, metadata !866, i1 false, i1 false, i32 0, i32 0, null, i32 256, i1 false, null, null, i32 0, metadata !119, i32 1584} ; [ DW_TAG_subprogram ]
!866 = metadata !{i32 786453, i32 0, metadata !"", i32 0, i32 0, i64 0, i64 0, i64 0, i32 0, null, metadata !867, i32 0, i32 0} ; [ DW_TAG_subroutine_type ]
!867 = metadata !{metadata !785, metadata !868}
!868 = metadata !{i32 786447, i32 0, metadata !"", i32 0, i32 0, i64 64, i64 64, i64 0, i32 64, metadata !816} ; [ DW_TAG_pointer_type ]
!869 = metadata !{i32 786478, i32 0, metadata !785, metadata !"write", metadata !"write", metadata !"_ZNV11ap_int_baseILi4ELb1ELb1EE5writeERKS0_", metadata !149, i32 1590, metadata !870, i1 false, i1 false, i32 0, i32 0, null, i32 256, i1 false, null, null, i32 0, metadata !119, i32 1590} ; [ DW_TAG_subprogram ]
!870 = metadata !{i32 786453, i32 0, metadata !"", i32 0, i32 0, i64 0, i64 0, i64 0, i32 0, null, metadata !871, i32 0, i32 0} ; [ DW_TAG_subroutine_type ]
!871 = metadata !{null, metadata !868, metadata !806}
!872 = metadata !{i32 786478, i32 0, metadata !785, metadata !"operator=", metadata !"operator=", metadata !"_ZNV11ap_int_baseILi4ELb1ELb1EEaSERVKS0_", metadata !149, i32 1602, metadata !873, i1 false, i1 false, i32 0, i32 0, null, i32 256, i1 false, null, null, i32 0, metadata !119, i32 1602} ; [ DW_TAG_subprogram ]
!873 = metadata !{i32 786453, i32 0, metadata !"", i32 0, i32 0, i64 0, i64 0, i64 0, i32 0, null, metadata !874, i32 0, i32 0} ; [ DW_TAG_subroutine_type ]
!874 = metadata !{null, metadata !868, metadata !814}
!875 = metadata !{i32 786478, i32 0, metadata !785, metadata !"operator=", metadata !"operator=", metadata !"_ZNV11ap_int_baseILi4ELb1ELb1EEaSERKS0_", metadata !149, i32 1611, metadata !870, i1 false, i1 false, i32 0, i32 0, null, i32 256, i1 false, null, null, i32 0, metadata !119, i32 1611} ; [ DW_TAG_subprogram ]
!876 = metadata !{i32 786478, i32 0, metadata !785, metadata !"operator=", metadata !"operator=", metadata !"_ZN11ap_int_baseILi4ELb1ELb1EEaSERVKS0_", metadata !149, i32 1634, metadata !877, i1 false, i1 false, i32 0, i32 0, null, i32 256, i1 false, null, null, i32 0, metadata !119, i32 1634} ; [ DW_TAG_subprogram ]
!877 = metadata !{i32 786453, i32 0, metadata !"", i32 0, i32 0, i64 0, i64 0, i64 0, i32 0, null, metadata !878, i32 0, i32 0} ; [ DW_TAG_subroutine_type ]
!878 = metadata !{metadata !879, metadata !802, metadata !814}
!879 = metadata !{i32 786448, null, null, null, i32 0, i64 0, i64 0, i64 0, i32 0, metadata !785} ; [ DW_TAG_reference_type ]
!880 = metadata !{i32 786478, i32 0, metadata !785, metadata !"operator=", metadata !"operator=", metadata !"_ZN11ap_int_baseILi4ELb1ELb1EEaSERKS0_", metadata !149, i32 1639, metadata !881, i1 false, i1 false, i32 0, i32 0, null, i32 256, i1 false, null, null, i32 0, metadata !119, i32 1639} ; [ DW_TAG_subprogram ]
!881 = metadata !{i32 786453, i32 0, metadata !"", i32 0, i32 0, i64 0, i64 0, i64 0, i32 0, null, metadata !882, i32 0, i32 0} ; [ DW_TAG_subroutine_type ]
!882 = metadata !{metadata !879, metadata !802, metadata !806}
!883 = metadata !{i32 786478, i32 0, metadata !785, metadata !"operator=", metadata !"operator=", metadata !"_ZN11ap_int_baseILi4ELb1ELb1EEaSEPKc", metadata !149, i32 1643, metadata !884, i1 false, i1 false, i32 0, i32 0, null, i32 256, i1 false, null, null, i32 0, metadata !119, i32 1643} ; [ DW_TAG_subprogram ]
!884 = metadata !{i32 786453, i32 0, metadata !"", i32 0, i32 0, i64 0, i64 0, i64 0, i32 0, null, metadata !885, i32 0, i32 0} ; [ DW_TAG_subroutine_type ]
!885 = metadata !{metadata !879, metadata !802, metadata !248}
!886 = metadata !{i32 786478, i32 0, metadata !785, metadata !"set", metadata !"set", metadata !"_ZN11ap_int_baseILi4ELb1ELb1EE3setEPKca", metadata !149, i32 1651, metadata !887, i1 false, i1 false, i32 0, i32 0, null, i32 256, i1 false, null, null, i32 0, metadata !119, i32 1651} ; [ DW_TAG_subprogram ]
!887 = metadata !{i32 786453, i32 0, metadata !"", i32 0, i32 0, i64 0, i64 0, i64 0, i32 0, null, metadata !888, i32 0, i32 0} ; [ DW_TAG_subroutine_type ]
!888 = metadata !{metadata !879, metadata !802, metadata !248, metadata !194}
!889 = metadata !{i32 786478, i32 0, metadata !785, metadata !"operator=", metadata !"operator=", metadata !"_ZN11ap_int_baseILi4ELb1ELb1EEaSEa", metadata !149, i32 1665, metadata !890, i1 false, i1 false, i32 0, i32 0, null, i32 256, i1 false, null, null, i32 0, metadata !119, i32 1665} ; [ DW_TAG_subprogram ]
!890 = metadata !{i32 786453, i32 0, metadata !"", i32 0, i32 0, i64 0, i64 0, i64 0, i32 0, null, metadata !891, i32 0, i32 0} ; [ DW_TAG_subroutine_type ]
!891 = metadata !{metadata !879, metadata !802, metadata !194}
!892 = metadata !{i32 786478, i32 0, metadata !785, metadata !"operator=", metadata !"operator=", metadata !"_ZN11ap_int_baseILi4ELb1ELb1EEaSEh", metadata !149, i32 1666, metadata !893, i1 false, i1 false, i32 0, i32 0, null, i32 256, i1 false, null, null, i32 0, metadata !119, i32 1666} ; [ DW_TAG_subprogram ]
!893 = metadata !{i32 786453, i32 0, metadata !"", i32 0, i32 0, i64 0, i64 0, i64 0, i32 0, null, metadata !894, i32 0, i32 0} ; [ DW_TAG_subroutine_type ]
!894 = metadata !{metadata !879, metadata !802, metadata !198}
!895 = metadata !{i32 786478, i32 0, metadata !785, metadata !"operator=", metadata !"operator=", metadata !"_ZN11ap_int_baseILi4ELb1ELb1EEaSEs", metadata !149, i32 1667, metadata !896, i1 false, i1 false, i32 0, i32 0, null, i32 256, i1 false, null, null, i32 0, metadata !119, i32 1667} ; [ DW_TAG_subprogram ]
!896 = metadata !{i32 786453, i32 0, metadata !"", i32 0, i32 0, i64 0, i64 0, i64 0, i32 0, null, metadata !897, i32 0, i32 0} ; [ DW_TAG_subroutine_type ]
!897 = metadata !{metadata !879, metadata !802, metadata !202}
!898 = metadata !{i32 786478, i32 0, metadata !785, metadata !"operator=", metadata !"operator=", metadata !"_ZN11ap_int_baseILi4ELb1ELb1EEaSEt", metadata !149, i32 1668, metadata !899, i1 false, i1 false, i32 0, i32 0, null, i32 256, i1 false, null, null, i32 0, metadata !119, i32 1668} ; [ DW_TAG_subprogram ]
!899 = metadata !{i32 786453, i32 0, metadata !"", i32 0, i32 0, i64 0, i64 0, i64 0, i32 0, null, metadata !900, i32 0, i32 0} ; [ DW_TAG_subroutine_type ]
!900 = metadata !{metadata !879, metadata !802, metadata !206}
!901 = metadata !{i32 786478, i32 0, metadata !785, metadata !"operator=", metadata !"operator=", metadata !"_ZN11ap_int_baseILi4ELb1ELb1EEaSEi", metadata !149, i32 1669, metadata !902, i1 false, i1 false, i32 0, i32 0, null, i32 256, i1 false, null, null, i32 0, metadata !119, i32 1669} ; [ DW_TAG_subprogram ]
!902 = metadata !{i32 786453, i32 0, metadata !"", i32 0, i32 0, i64 0, i64 0, i64 0, i32 0, null, metadata !903, i32 0, i32 0} ; [ DW_TAG_subroutine_type ]
!903 = metadata !{metadata !879, metadata !802, metadata !118}
!904 = metadata !{i32 786478, i32 0, metadata !785, metadata !"operator=", metadata !"operator=", metadata !"_ZN11ap_int_baseILi4ELb1ELb1EEaSEj", metadata !149, i32 1670, metadata !905, i1 false, i1 false, i32 0, i32 0, null, i32 256, i1 false, null, null, i32 0, metadata !119, i32 1670} ; [ DW_TAG_subprogram ]
!905 = metadata !{i32 786453, i32 0, metadata !"", i32 0, i32 0, i64 0, i64 0, i64 0, i32 0, null, metadata !906, i32 0, i32 0} ; [ DW_TAG_subroutine_type ]
!906 = metadata !{metadata !879, metadata !802, metadata !213}
!907 = metadata !{i32 786478, i32 0, metadata !785, metadata !"operator=", metadata !"operator=", metadata !"_ZN11ap_int_baseILi4ELb1ELb1EEaSEx", metadata !149, i32 1671, metadata !908, i1 false, i1 false, i32 0, i32 0, null, i32 256, i1 false, null, null, i32 0, metadata !119, i32 1671} ; [ DW_TAG_subprogram ]
!908 = metadata !{i32 786453, i32 0, metadata !"", i32 0, i32 0, i64 0, i64 0, i64 0, i32 0, null, metadata !909, i32 0, i32 0} ; [ DW_TAG_subroutine_type ]
!909 = metadata !{metadata !879, metadata !802, metadata !225}
!910 = metadata !{i32 786478, i32 0, metadata !785, metadata !"operator=", metadata !"operator=", metadata !"_ZN11ap_int_baseILi4ELb1ELb1EEaSEy", metadata !149, i32 1672, metadata !911, i1 false, i1 false, i32 0, i32 0, null, i32 256, i1 false, null, null, i32 0, metadata !119, i32 1672} ; [ DW_TAG_subprogram ]
!911 = metadata !{i32 786453, i32 0, metadata !"", i32 0, i32 0, i64 0, i64 0, i64 0, i32 0, null, metadata !912, i32 0, i32 0} ; [ DW_TAG_subroutine_type ]
!912 = metadata !{metadata !879, metadata !802, metadata !230}
!913 = metadata !{i32 786478, i32 0, metadata !785, metadata !"operator signed char", metadata !"operator signed char", metadata !"_ZNK11ap_int_baseILi4ELb1ELb1EEcvaEv", metadata !149, i32 1710, metadata !914, i1 false, i1 false, i32 0, i32 0, null, i32 256, i1 false, null, null, i32 0, metadata !119, i32 1710} ; [ DW_TAG_subprogram ]
!914 = metadata !{i32 786453, i32 0, metadata !"", i32 0, i32 0, i64 0, i64 0, i64 0, i32 0, null, metadata !915, i32 0, i32 0} ; [ DW_TAG_subroutine_type ]
!915 = metadata !{metadata !916, metadata !920}
!916 = metadata !{i32 786454, metadata !785, metadata !"RetType", metadata !149, i32 1458, i64 0, i64 0, i64 0, i32 0, metadata !917} ; [ DW_TAG_typedef ]
!917 = metadata !{i32 786454, metadata !918, metadata !"Type", metadata !149, i32 1423, i64 0, i64 0, i64 0, i32 0, metadata !194} ; [ DW_TAG_typedef ]
!918 = metadata !{i32 786434, null, metadata !"retval<1, true>", metadata !149, i32 1422, i64 8, i64 8, i32 0, i32 0, null, metadata !308, i32 0, null, metadata !919} ; [ DW_TAG_class_type ]
!919 = metadata !{metadata !706, metadata !798}
!920 = metadata !{i32 786447, i32 0, metadata !"", i32 0, i32 0, i64 64, i64 64, i64 0, i32 64, metadata !807} ; [ DW_TAG_pointer_type ]
!921 = metadata !{i32 786478, i32 0, metadata !785, metadata !"to_bool", metadata !"to_bool", metadata !"_ZNK11ap_int_baseILi4ELb1ELb1EE7to_boolEv", metadata !149, i32 1716, metadata !922, i1 false, i1 false, i32 0, i32 0, null, i32 256, i1 false, null, null, i32 0, metadata !119, i32 1716} ; [ DW_TAG_subprogram ]
!922 = metadata !{i32 786453, i32 0, metadata !"", i32 0, i32 0, i64 0, i64 0, i64 0, i32 0, null, metadata !923, i32 0, i32 0} ; [ DW_TAG_subroutine_type ]
!923 = metadata !{metadata !169, metadata !920}
!924 = metadata !{i32 786478, i32 0, metadata !785, metadata !"to_uchar", metadata !"to_uchar", metadata !"_ZNK11ap_int_baseILi4ELb1ELb1EE8to_ucharEv", metadata !149, i32 1717, metadata !925, i1 false, i1 false, i32 0, i32 0, null, i32 256, i1 false, null, null, i32 0, metadata !119, i32 1717} ; [ DW_TAG_subprogram ]
!925 = metadata !{i32 786453, i32 0, metadata !"", i32 0, i32 0, i64 0, i64 0, i64 0, i32 0, null, metadata !926, i32 0, i32 0} ; [ DW_TAG_subroutine_type ]
!926 = metadata !{metadata !198, metadata !920}
!927 = metadata !{i32 786478, i32 0, metadata !785, metadata !"to_char", metadata !"to_char", metadata !"_ZNK11ap_int_baseILi4ELb1ELb1EE7to_charEv", metadata !149, i32 1718, metadata !928, i1 false, i1 false, i32 0, i32 0, null, i32 256, i1 false, null, null, i32 0, metadata !119, i32 1718} ; [ DW_TAG_subprogram ]
!928 = metadata !{i32 786453, i32 0, metadata !"", i32 0, i32 0, i64 0, i64 0, i64 0, i32 0, null, metadata !929, i32 0, i32 0} ; [ DW_TAG_subroutine_type ]
!929 = metadata !{metadata !194, metadata !920}
!930 = metadata !{i32 786478, i32 0, metadata !785, metadata !"to_ushort", metadata !"to_ushort", metadata !"_ZNK11ap_int_baseILi4ELb1ELb1EE9to_ushortEv", metadata !149, i32 1719, metadata !931, i1 false, i1 false, i32 0, i32 0, null, i32 256, i1 false, null, null, i32 0, metadata !119, i32 1719} ; [ DW_TAG_subprogram ]
!931 = metadata !{i32 786453, i32 0, metadata !"", i32 0, i32 0, i64 0, i64 0, i64 0, i32 0, null, metadata !932, i32 0, i32 0} ; [ DW_TAG_subroutine_type ]
!932 = metadata !{metadata !206, metadata !920}
!933 = metadata !{i32 786478, i32 0, metadata !785, metadata !"to_short", metadata !"to_short", metadata !"_ZNK11ap_int_baseILi4ELb1ELb1EE8to_shortEv", metadata !149, i32 1720, metadata !934, i1 false, i1 false, i32 0, i32 0, null, i32 256, i1 false, null, null, i32 0, metadata !119, i32 1720} ; [ DW_TAG_subprogram ]
!934 = metadata !{i32 786453, i32 0, metadata !"", i32 0, i32 0, i64 0, i64 0, i64 0, i32 0, null, metadata !935, i32 0, i32 0} ; [ DW_TAG_subroutine_type ]
!935 = metadata !{metadata !202, metadata !920}
!936 = metadata !{i32 786478, i32 0, metadata !785, metadata !"to_int", metadata !"to_int", metadata !"_ZNK11ap_int_baseILi4ELb1ELb1EE6to_intEv", metadata !149, i32 1721, metadata !937, i1 false, i1 false, i32 0, i32 0, null, i32 256, i1 false, null, null, i32 0, metadata !119, i32 1721} ; [ DW_TAG_subprogram ]
!937 = metadata !{i32 786453, i32 0, metadata !"", i32 0, i32 0, i64 0, i64 0, i64 0, i32 0, null, metadata !938, i32 0, i32 0} ; [ DW_TAG_subroutine_type ]
!938 = metadata !{metadata !118, metadata !920}
!939 = metadata !{i32 786478, i32 0, metadata !785, metadata !"to_uint", metadata !"to_uint", metadata !"_ZNK11ap_int_baseILi4ELb1ELb1EE7to_uintEv", metadata !149, i32 1722, metadata !940, i1 false, i1 false, i32 0, i32 0, null, i32 256, i1 false, null, null, i32 0, metadata !119, i32 1722} ; [ DW_TAG_subprogram ]
!940 = metadata !{i32 786453, i32 0, metadata !"", i32 0, i32 0, i64 0, i64 0, i64 0, i32 0, null, metadata !941, i32 0, i32 0} ; [ DW_TAG_subroutine_type ]
!941 = metadata !{metadata !213, metadata !920}
!942 = metadata !{i32 786478, i32 0, metadata !785, metadata !"to_long", metadata !"to_long", metadata !"_ZNK11ap_int_baseILi4ELb1ELb1EE7to_longEv", metadata !149, i32 1723, metadata !943, i1 false, i1 false, i32 0, i32 0, null, i32 256, i1 false, null, null, i32 0, metadata !119, i32 1723} ; [ DW_TAG_subprogram ]
!943 = metadata !{i32 786453, i32 0, metadata !"", i32 0, i32 0, i64 0, i64 0, i64 0, i32 0, null, metadata !944, i32 0, i32 0} ; [ DW_TAG_subroutine_type ]
!944 = metadata !{metadata !217, metadata !920}
!945 = metadata !{i32 786478, i32 0, metadata !785, metadata !"to_ulong", metadata !"to_ulong", metadata !"_ZNK11ap_int_baseILi4ELb1ELb1EE8to_ulongEv", metadata !149, i32 1724, metadata !946, i1 false, i1 false, i32 0, i32 0, null, i32 256, i1 false, null, null, i32 0, metadata !119, i32 1724} ; [ DW_TAG_subprogram ]
!946 = metadata !{i32 786453, i32 0, metadata !"", i32 0, i32 0, i64 0, i64 0, i64 0, i32 0, null, metadata !947, i32 0, i32 0} ; [ DW_TAG_subroutine_type ]
!947 = metadata !{metadata !221, metadata !920}
!948 = metadata !{i32 786478, i32 0, metadata !785, metadata !"to_int64", metadata !"to_int64", metadata !"_ZNK11ap_int_baseILi4ELb1ELb1EE8to_int64Ev", metadata !149, i32 1725, metadata !949, i1 false, i1 false, i32 0, i32 0, null, i32 256, i1 false, null, null, i32 0, metadata !119, i32 1725} ; [ DW_TAG_subprogram ]
!949 = metadata !{i32 786453, i32 0, metadata !"", i32 0, i32 0, i64 0, i64 0, i64 0, i32 0, null, metadata !950, i32 0, i32 0} ; [ DW_TAG_subroutine_type ]
!950 = metadata !{metadata !225, metadata !920}
!951 = metadata !{i32 786478, i32 0, metadata !785, metadata !"to_uint64", metadata !"to_uint64", metadata !"_ZNK11ap_int_baseILi4ELb1ELb1EE9to_uint64Ev", metadata !149, i32 1726, metadata !952, i1 false, i1 false, i32 0, i32 0, null, i32 256, i1 false, null, null, i32 0, metadata !119, i32 1726} ; [ DW_TAG_subprogram ]
!952 = metadata !{i32 786453, i32 0, metadata !"", i32 0, i32 0, i64 0, i64 0, i64 0, i32 0, null, metadata !953, i32 0, i32 0} ; [ DW_TAG_subroutine_type ]
!953 = metadata !{metadata !230, metadata !920}
!954 = metadata !{i32 786478, i32 0, metadata !785, metadata !"to_double", metadata !"to_double", metadata !"_ZNK11ap_int_baseILi4ELb1ELb1EE9to_doubleEv", metadata !149, i32 1727, metadata !955, i1 false, i1 false, i32 0, i32 0, null, i32 256, i1 false, null, null, i32 0, metadata !119, i32 1727} ; [ DW_TAG_subprogram ]
!955 = metadata !{i32 786453, i32 0, metadata !"", i32 0, i32 0, i64 0, i64 0, i64 0, i32 0, null, metadata !956, i32 0, i32 0} ; [ DW_TAG_subroutine_type ]
!956 = metadata !{metadata !244, metadata !920}
!957 = metadata !{i32 786478, i32 0, metadata !785, metadata !"length", metadata !"length", metadata !"_ZNK11ap_int_baseILi4ELb1ELb1EE6lengthEv", metadata !149, i32 1741, metadata !937, i1 false, i1 false, i32 0, i32 0, null, i32 256, i1 false, null, null, i32 0, metadata !119, i32 1741} ; [ DW_TAG_subprogram ]
!958 = metadata !{i32 786478, i32 0, metadata !785, metadata !"length", metadata !"length", metadata !"_ZNVK11ap_int_baseILi4ELb1ELb1EE6lengthEv", metadata !149, i32 1742, metadata !959, i1 false, i1 false, i32 0, i32 0, null, i32 256, i1 false, null, null, i32 0, metadata !119, i32 1742} ; [ DW_TAG_subprogram ]
!959 = metadata !{i32 786453, i32 0, metadata !"", i32 0, i32 0, i64 0, i64 0, i64 0, i32 0, null, metadata !960, i32 0, i32 0} ; [ DW_TAG_subroutine_type ]
!960 = metadata !{metadata !118, metadata !961}
!961 = metadata !{i32 786447, i32 0, metadata !"", i32 0, i32 0, i64 64, i64 64, i64 0, i32 64, metadata !815} ; [ DW_TAG_pointer_type ]
!962 = metadata !{i32 786478, i32 0, metadata !785, metadata !"reverse", metadata !"reverse", metadata !"_ZN11ap_int_baseILi4ELb1ELb1EE7reverseEv", metadata !149, i32 1747, metadata !963, i1 false, i1 false, i32 0, i32 0, null, i32 256, i1 false, null, null, i32 0, metadata !119, i32 1747} ; [ DW_TAG_subprogram ]
!963 = metadata !{i32 786453, i32 0, metadata !"", i32 0, i32 0, i64 0, i64 0, i64 0, i32 0, null, metadata !964, i32 0, i32 0} ; [ DW_TAG_subroutine_type ]
!964 = metadata !{metadata !879, metadata !802}
!965 = metadata !{i32 786478, i32 0, metadata !785, metadata !"iszero", metadata !"iszero", metadata !"_ZNK11ap_int_baseILi4ELb1ELb1EE6iszeroEv", metadata !149, i32 1753, metadata !922, i1 false, i1 false, i32 0, i32 0, null, i32 256, i1 false, null, null, i32 0, metadata !119, i32 1753} ; [ DW_TAG_subprogram ]
!966 = metadata !{i32 786478, i32 0, metadata !785, metadata !"is_zero", metadata !"is_zero", metadata !"_ZNK11ap_int_baseILi4ELb1ELb1EE7is_zeroEv", metadata !149, i32 1758, metadata !922, i1 false, i1 false, i32 0, i32 0, null, i32 256, i1 false, null, null, i32 0, metadata !119, i32 1758} ; [ DW_TAG_subprogram ]
!967 = metadata !{i32 786478, i32 0, metadata !785, metadata !"sign", metadata !"sign", metadata !"_ZNK11ap_int_baseILi4ELb1ELb1EE4signEv", metadata !149, i32 1763, metadata !922, i1 false, i1 false, i32 0, i32 0, null, i32 256, i1 false, null, null, i32 0, metadata !119, i32 1763} ; [ DW_TAG_subprogram ]
!968 = metadata !{i32 786478, i32 0, metadata !785, metadata !"clear", metadata !"clear", metadata !"_ZN11ap_int_baseILi4ELb1ELb1EE5clearEi", metadata !149, i32 1771, metadata !833, i1 false, i1 false, i32 0, i32 0, null, i32 256, i1 false, null, null, i32 0, metadata !119, i32 1771} ; [ DW_TAG_subprogram ]
!969 = metadata !{i32 786478, i32 0, metadata !785, metadata !"invert", metadata !"invert", metadata !"_ZN11ap_int_baseILi4ELb1ELb1EE6invertEi", metadata !149, i32 1777, metadata !833, i1 false, i1 false, i32 0, i32 0, null, i32 256, i1 false, null, null, i32 0, metadata !119, i32 1777} ; [ DW_TAG_subprogram ]
!970 = metadata !{i32 786478, i32 0, metadata !785, metadata !"test", metadata !"test", metadata !"_ZNK11ap_int_baseILi4ELb1ELb1EE4testEi", metadata !149, i32 1785, metadata !971, i1 false, i1 false, i32 0, i32 0, null, i32 256, i1 false, null, null, i32 0, metadata !119, i32 1785} ; [ DW_TAG_subprogram ]
!971 = metadata !{i32 786453, i32 0, metadata !"", i32 0, i32 0, i64 0, i64 0, i64 0, i32 0, null, metadata !972, i32 0, i32 0} ; [ DW_TAG_subroutine_type ]
!972 = metadata !{metadata !169, metadata !920, metadata !118}
!973 = metadata !{i32 786478, i32 0, metadata !785, metadata !"set", metadata !"set", metadata !"_ZN11ap_int_baseILi4ELb1ELb1EE3setEi", metadata !149, i32 1791, metadata !833, i1 false, i1 false, i32 0, i32 0, null, i32 256, i1 false, null, null, i32 0, metadata !119, i32 1791} ; [ DW_TAG_subprogram ]
!974 = metadata !{i32 786478, i32 0, metadata !785, metadata !"set", metadata !"set", metadata !"_ZN11ap_int_baseILi4ELb1ELb1EE3setEib", metadata !149, i32 1797, metadata !975, i1 false, i1 false, i32 0, i32 0, null, i32 256, i1 false, null, null, i32 0, metadata !119, i32 1797} ; [ DW_TAG_subprogram ]
!975 = metadata !{i32 786453, i32 0, metadata !"", i32 0, i32 0, i64 0, i64 0, i64 0, i32 0, null, metadata !976, i32 0, i32 0} ; [ DW_TAG_subroutine_type ]
!976 = metadata !{null, metadata !802, metadata !118, metadata !169}
!977 = metadata !{i32 786478, i32 0, metadata !785, metadata !"lrotate", metadata !"lrotate", metadata !"_ZN11ap_int_baseILi4ELb1ELb1EE7lrotateEi", metadata !149, i32 1804, metadata !833, i1 false, i1 false, i32 0, i32 0, null, i32 256, i1 false, null, null, i32 0, metadata !119, i32 1804} ; [ DW_TAG_subprogram ]
!978 = metadata !{i32 786478, i32 0, metadata !785, metadata !"rrotate", metadata !"rrotate", metadata !"_ZN11ap_int_baseILi4ELb1ELb1EE7rrotateEi", metadata !149, i32 1813, metadata !833, i1 false, i1 false, i32 0, i32 0, null, i32 256, i1 false, null, null, i32 0, metadata !119, i32 1813} ; [ DW_TAG_subprogram ]
!979 = metadata !{i32 786478, i32 0, metadata !785, metadata !"set_bit", metadata !"set_bit", metadata !"_ZN11ap_int_baseILi4ELb1ELb1EE7set_bitEib", metadata !149, i32 1821, metadata !975, i1 false, i1 false, i32 0, i32 0, null, i32 256, i1 false, null, null, i32 0, metadata !119, i32 1821} ; [ DW_TAG_subprogram ]
!980 = metadata !{i32 786478, i32 0, metadata !785, metadata !"get_bit", metadata !"get_bit", metadata !"_ZNK11ap_int_baseILi4ELb1ELb1EE7get_bitEi", metadata !149, i32 1826, metadata !971, i1 false, i1 false, i32 0, i32 0, null, i32 256, i1 false, null, null, i32 0, metadata !119, i32 1826} ; [ DW_TAG_subprogram ]
!981 = metadata !{i32 786478, i32 0, metadata !785, metadata !"b_not", metadata !"b_not", metadata !"_ZN11ap_int_baseILi4ELb1ELb1EE5b_notEv", metadata !149, i32 1831, metadata !800, i1 false, i1 false, i32 0, i32 0, null, i32 256, i1 false, null, null, i32 0, metadata !119, i32 1831} ; [ DW_TAG_subprogram ]
!982 = metadata !{i32 786478, i32 0, metadata !785, metadata !"countLeadingZeros", metadata !"countLeadingZeros", metadata !"_ZN11ap_int_baseILi4ELb1ELb1EE17countLeadingZerosEv", metadata !149, i32 1838, metadata !983, i1 false, i1 false, i32 0, i32 0, null, i32 256, i1 false, null, null, i32 0, metadata !119, i32 1838} ; [ DW_TAG_subprogram ]
!983 = metadata !{i32 786453, i32 0, metadata !"", i32 0, i32 0, i64 0, i64 0, i64 0, i32 0, null, metadata !984, i32 0, i32 0} ; [ DW_TAG_subroutine_type ]
!984 = metadata !{metadata !118, metadata !802}
!985 = metadata !{i32 786478, i32 0, metadata !785, metadata !"operator++", metadata !"operator++", metadata !"_ZN11ap_int_baseILi4ELb1ELb1EEppEv", metadata !149, i32 1895, metadata !963, i1 false, i1 false, i32 0, i32 0, null, i32 256, i1 false, null, null, i32 0, metadata !119, i32 1895} ; [ DW_TAG_subprogram ]
!986 = metadata !{i32 786478, i32 0, metadata !785, metadata !"operator--", metadata !"operator--", metadata !"_ZN11ap_int_baseILi4ELb1ELb1EEmmEv", metadata !149, i32 1899, metadata !963, i1 false, i1 false, i32 0, i32 0, null, i32 256, i1 false, null, null, i32 0, metadata !119, i32 1899} ; [ DW_TAG_subprogram ]
!987 = metadata !{i32 786478, i32 0, metadata !785, metadata !"operator++", metadata !"operator++", metadata !"_ZN11ap_int_baseILi4ELb1ELb1EEppEi", metadata !149, i32 1907, metadata !988, i1 false, i1 false, i32 0, i32 0, null, i32 256, i1 false, null, null, i32 0, metadata !119, i32 1907} ; [ DW_TAG_subprogram ]
!988 = metadata !{i32 786453, i32 0, metadata !"", i32 0, i32 0, i64 0, i64 0, i64 0, i32 0, null, metadata !989, i32 0, i32 0} ; [ DW_TAG_subroutine_type ]
!989 = metadata !{metadata !807, metadata !802, metadata !118}
!990 = metadata !{i32 786478, i32 0, metadata !785, metadata !"operator--", metadata !"operator--", metadata !"_ZN11ap_int_baseILi4ELb1ELb1EEmmEi", metadata !149, i32 1912, metadata !988, i1 false, i1 false, i32 0, i32 0, null, i32 256, i1 false, null, null, i32 0, metadata !119, i32 1912} ; [ DW_TAG_subprogram ]
!991 = metadata !{i32 786478, i32 0, metadata !785, metadata !"operator+", metadata !"operator+", metadata !"_ZNK11ap_int_baseILi4ELb1ELb1EEpsEv", metadata !149, i32 1921, metadata !992, i1 false, i1 false, i32 0, i32 0, null, i32 256, i1 false, null, null, i32 0, metadata !119, i32 1921} ; [ DW_TAG_subprogram ]
!992 = metadata !{i32 786453, i32 0, metadata !"", i32 0, i32 0, i64 0, i64 0, i64 0, i32 0, null, metadata !993, i32 0, i32 0} ; [ DW_TAG_subroutine_type ]
!993 = metadata !{metadata !785, metadata !920}
!994 = metadata !{i32 786478, i32 0, metadata !785, metadata !"operator!", metadata !"operator!", metadata !"_ZNK11ap_int_baseILi4ELb1ELb1EEntEv", metadata !149, i32 1927, metadata !922, i1 false, i1 false, i32 0, i32 0, null, i32 256, i1 false, null, null, i32 0, metadata !119, i32 1927} ; [ DW_TAG_subprogram ]
!995 = metadata !{i32 786478, i32 0, metadata !785, metadata !"operator-", metadata !"operator-", metadata !"_ZNK11ap_int_baseILi4ELb1ELb1EEngEv", metadata !149, i32 1932, metadata !996, i1 false, i1 false, i32 0, i32 0, null, i32 256, i1 false, null, null, i32 0, metadata !119, i32 1932} ; [ DW_TAG_subprogram ]
!996 = metadata !{i32 786453, i32 0, metadata !"", i32 0, i32 0, i64 0, i64 0, i64 0, i32 0, null, metadata !997, i32 0, i32 0} ; [ DW_TAG_subroutine_type ]
!997 = metadata !{metadata !998, metadata !920}
!998 = metadata !{i32 786434, null, metadata !"ap_int_base<5, true, true>", metadata !149, i32 1453, i64 8, i64 8, i32 0, i32 0, null, metadata !999, i32 0, null, metadata !1246} ; [ DW_TAG_class_type ]
!999 = metadata !{metadata !1000, metadata !1011, metadata !1015, metadata !1022, metadata !1028, metadata !1031, metadata !1034, metadata !1037, metadata !1040, metadata !1043, metadata !1046, metadata !1049, metadata !1052, metadata !1055, metadata !1058, metadata !1061, metadata !1064, metadata !1067, metadata !1070, metadata !1073, metadata !1076, metadata !1080, metadata !1083, metadata !1086, metadata !1087, metadata !1091, metadata !1094, metadata !1097, metadata !1100, metadata !1103, metadata !1106, metadata !1109, metadata !1112, metadata !1115, metadata !1118, metadata !1121, metadata !1124, metadata !1129, metadata !1132, metadata !1135, metadata !1138, metadata !1141, metadata !1144, metadata !1147, metadata !1150, metadata !1153, metadata !1156, metadata !1159, metadata !1162, metadata !1165, metadata !1166, metadata !1170, metadata !1173, metadata !1174, metadata !1175, metadata !1176, metadata !1177, metadata !1178, metadata !1181, metadata !1182, metadata !1185, metadata !1186, metadata !1187, metadata !1188, metadata !1189, metadata !1190, metadata !1193, metadata !1194, metadata !1195, metadata !1198, metadata !1199, metadata !1202, metadata !1203, metadata !1207, metadata !1211, metadata !1212, metadata !1215, metadata !1216, metadata !1220, metadata !1221, metadata !1222, metadata !1223, metadata !1226, metadata !1227, metadata !1228, metadata !1229, metadata !1230, metadata !1231, metadata !1232, metadata !1233, metadata !1234, metadata !1235, metadata !1236, metadata !1237, metadata !1240, metadata !1243}
!1000 = metadata !{i32 786460, metadata !998, null, metadata !149, i32 0, i64 0, i64 0, i64 0, i32 0, metadata !1001} ; [ DW_TAG_inheritance ]
!1001 = metadata !{i32 786434, null, metadata !"ssdm_int<5 + 1024 * 0, true>", metadata !153, i32 7, i64 8, i64 8, i32 0, i32 0, null, metadata !1002, i32 0, null, metadata !1009} ; [ DW_TAG_class_type ]
!1002 = metadata !{metadata !1003, metadata !1005}
!1003 = metadata !{i32 786445, metadata !1001, metadata !"V", metadata !153, i32 7, i64 5, i64 8, i64 0, i32 0, metadata !1004} ; [ DW_TAG_member ]
!1004 = metadata !{i32 786468, null, metadata !"int5", null, i32 0, i64 5, i64 8, i64 0, i32 0, i32 5} ; [ DW_TAG_base_type ]
!1005 = metadata !{i32 786478, i32 0, metadata !1001, metadata !"ssdm_int", metadata !"ssdm_int", metadata !"", metadata !153, i32 7, metadata !1006, i1 false, i1 false, i32 0, i32 0, null, i32 256, i1 false, null, null, i32 0, metadata !119, i32 7} ; [ DW_TAG_subprogram ]
!1006 = metadata !{i32 786453, i32 0, metadata !"", i32 0, i32 0, i64 0, i64 0, i64 0, i32 0, null, metadata !1007, i32 0, i32 0} ; [ DW_TAG_subroutine_type ]
!1007 = metadata !{null, metadata !1008}
!1008 = metadata !{i32 786447, i32 0, metadata !"", i32 0, i32 0, i64 64, i64 64, i64 0, i32 64, metadata !1001} ; [ DW_TAG_pointer_type ]
!1009 = metadata !{metadata !1010, metadata !798}
!1010 = metadata !{i32 786480, null, metadata !"_AP_N", metadata !118, i64 5, null, i32 0, i32 0} ; [ DW_TAG_template_value_parameter ]
!1011 = metadata !{i32 786478, i32 0, metadata !998, metadata !"ap_int_base", metadata !"ap_int_base", metadata !"", metadata !149, i32 1494, metadata !1012, i1 false, i1 false, i32 0, i32 0, null, i32 256, i1 false, null, null, i32 0, metadata !119, i32 1494} ; [ DW_TAG_subprogram ]
!1012 = metadata !{i32 786453, i32 0, metadata !"", i32 0, i32 0, i64 0, i64 0, i64 0, i32 0, null, metadata !1013, i32 0, i32 0} ; [ DW_TAG_subroutine_type ]
!1013 = metadata !{null, metadata !1014}
!1014 = metadata !{i32 786447, i32 0, metadata !"", i32 0, i32 0, i64 64, i64 64, i64 0, i32 64, metadata !998} ; [ DW_TAG_pointer_type ]
!1015 = metadata !{i32 786478, i32 0, metadata !998, metadata !"ap_int_base<5, true>", metadata !"ap_int_base<5, true>", metadata !"", metadata !149, i32 1506, metadata !1016, i1 false, i1 false, i32 0, i32 0, null, i32 256, i1 false, null, metadata !1020, i32 0, metadata !119, i32 1506} ; [ DW_TAG_subprogram ]
!1016 = metadata !{i32 786453, i32 0, metadata !"", i32 0, i32 0, i64 0, i64 0, i64 0, i32 0, null, metadata !1017, i32 0, i32 0} ; [ DW_TAG_subroutine_type ]
!1017 = metadata !{null, metadata !1014, metadata !1018}
!1018 = metadata !{i32 786448, null, null, null, i32 0, i64 0, i64 0, i64 0, i32 0, metadata !1019} ; [ DW_TAG_reference_type ]
!1019 = metadata !{i32 786470, null, metadata !"", null, i32 0, i64 0, i64 0, i64 0, i32 0, metadata !998} ; [ DW_TAG_const_type ]
!1020 = metadata !{metadata !1021, metadata !810}
!1021 = metadata !{i32 786480, null, metadata !"_AP_W2", metadata !118, i64 5, null, i32 0, i32 0} ; [ DW_TAG_template_value_parameter ]
!1022 = metadata !{i32 786478, i32 0, metadata !998, metadata !"ap_int_base<5, true>", metadata !"ap_int_base<5, true>", metadata !"", metadata !149, i32 1509, metadata !1023, i1 false, i1 false, i32 0, i32 0, null, i32 256, i1 false, null, metadata !1020, i32 0, metadata !119, i32 1509} ; [ DW_TAG_subprogram ]
!1023 = metadata !{i32 786453, i32 0, metadata !"", i32 0, i32 0, i64 0, i64 0, i64 0, i32 0, null, metadata !1024, i32 0, i32 0} ; [ DW_TAG_subroutine_type ]
!1024 = metadata !{null, metadata !1014, metadata !1025}
!1025 = metadata !{i32 786448, null, null, null, i32 0, i64 0, i64 0, i64 0, i32 0, metadata !1026} ; [ DW_TAG_reference_type ]
!1026 = metadata !{i32 786470, null, metadata !"", null, i32 0, i64 0, i64 0, i64 0, i32 0, metadata !1027} ; [ DW_TAG_const_type ]
!1027 = metadata !{i32 786485, null, metadata !"", null, i32 0, i64 0, i64 0, i64 0, i32 0, metadata !998} ; [ DW_TAG_volatile_type ]
!1028 = metadata !{i32 786478, i32 0, metadata !998, metadata !"ap_int_base", metadata !"ap_int_base", metadata !"", metadata !149, i32 1516, metadata !1029, i1 false, i1 false, i32 0, i32 0, null, i32 384, i1 false, null, null, i32 0, metadata !119, i32 1516} ; [ DW_TAG_subprogram ]
!1029 = metadata !{i32 786453, i32 0, metadata !"", i32 0, i32 0, i64 0, i64 0, i64 0, i32 0, null, metadata !1030, i32 0, i32 0} ; [ DW_TAG_subroutine_type ]
!1030 = metadata !{null, metadata !1014, metadata !169}
!1031 = metadata !{i32 786478, i32 0, metadata !998, metadata !"ap_int_base", metadata !"ap_int_base", metadata !"", metadata !149, i32 1517, metadata !1032, i1 false, i1 false, i32 0, i32 0, null, i32 384, i1 false, null, null, i32 0, metadata !119, i32 1517} ; [ DW_TAG_subprogram ]
!1032 = metadata !{i32 786453, i32 0, metadata !"", i32 0, i32 0, i64 0, i64 0, i64 0, i32 0, null, metadata !1033, i32 0, i32 0} ; [ DW_TAG_subroutine_type ]
!1033 = metadata !{null, metadata !1014, metadata !194}
!1034 = metadata !{i32 786478, i32 0, metadata !998, metadata !"ap_int_base", metadata !"ap_int_base", metadata !"", metadata !149, i32 1518, metadata !1035, i1 false, i1 false, i32 0, i32 0, null, i32 384, i1 false, null, null, i32 0, metadata !119, i32 1518} ; [ DW_TAG_subprogram ]
!1035 = metadata !{i32 786453, i32 0, metadata !"", i32 0, i32 0, i64 0, i64 0, i64 0, i32 0, null, metadata !1036, i32 0, i32 0} ; [ DW_TAG_subroutine_type ]
!1036 = metadata !{null, metadata !1014, metadata !198}
!1037 = metadata !{i32 786478, i32 0, metadata !998, metadata !"ap_int_base", metadata !"ap_int_base", metadata !"", metadata !149, i32 1519, metadata !1038, i1 false, i1 false, i32 0, i32 0, null, i32 384, i1 false, null, null, i32 0, metadata !119, i32 1519} ; [ DW_TAG_subprogram ]
!1038 = metadata !{i32 786453, i32 0, metadata !"", i32 0, i32 0, i64 0, i64 0, i64 0, i32 0, null, metadata !1039, i32 0, i32 0} ; [ DW_TAG_subroutine_type ]
!1039 = metadata !{null, metadata !1014, metadata !202}
!1040 = metadata !{i32 786478, i32 0, metadata !998, metadata !"ap_int_base", metadata !"ap_int_base", metadata !"", metadata !149, i32 1520, metadata !1041, i1 false, i1 false, i32 0, i32 0, null, i32 384, i1 false, null, null, i32 0, metadata !119, i32 1520} ; [ DW_TAG_subprogram ]
!1041 = metadata !{i32 786453, i32 0, metadata !"", i32 0, i32 0, i64 0, i64 0, i64 0, i32 0, null, metadata !1042, i32 0, i32 0} ; [ DW_TAG_subroutine_type ]
!1042 = metadata !{null, metadata !1014, metadata !206}
!1043 = metadata !{i32 786478, i32 0, metadata !998, metadata !"ap_int_base", metadata !"ap_int_base", metadata !"", metadata !149, i32 1521, metadata !1044, i1 false, i1 false, i32 0, i32 0, null, i32 384, i1 false, null, null, i32 0, metadata !119, i32 1521} ; [ DW_TAG_subprogram ]
!1044 = metadata !{i32 786453, i32 0, metadata !"", i32 0, i32 0, i64 0, i64 0, i64 0, i32 0, null, metadata !1045, i32 0, i32 0} ; [ DW_TAG_subroutine_type ]
!1045 = metadata !{null, metadata !1014, metadata !118}
!1046 = metadata !{i32 786478, i32 0, metadata !998, metadata !"ap_int_base", metadata !"ap_int_base", metadata !"", metadata !149, i32 1522, metadata !1047, i1 false, i1 false, i32 0, i32 0, null, i32 384, i1 false, null, null, i32 0, metadata !119, i32 1522} ; [ DW_TAG_subprogram ]
!1047 = metadata !{i32 786453, i32 0, metadata !"", i32 0, i32 0, i64 0, i64 0, i64 0, i32 0, null, metadata !1048, i32 0, i32 0} ; [ DW_TAG_subroutine_type ]
!1048 = metadata !{null, metadata !1014, metadata !213}
!1049 = metadata !{i32 786478, i32 0, metadata !998, metadata !"ap_int_base", metadata !"ap_int_base", metadata !"", metadata !149, i32 1523, metadata !1050, i1 false, i1 false, i32 0, i32 0, null, i32 384, i1 false, null, null, i32 0, metadata !119, i32 1523} ; [ DW_TAG_subprogram ]
!1050 = metadata !{i32 786453, i32 0, metadata !"", i32 0, i32 0, i64 0, i64 0, i64 0, i32 0, null, metadata !1051, i32 0, i32 0} ; [ DW_TAG_subroutine_type ]
!1051 = metadata !{null, metadata !1014, metadata !217}
!1052 = metadata !{i32 786478, i32 0, metadata !998, metadata !"ap_int_base", metadata !"ap_int_base", metadata !"", metadata !149, i32 1524, metadata !1053, i1 false, i1 false, i32 0, i32 0, null, i32 384, i1 false, null, null, i32 0, metadata !119, i32 1524} ; [ DW_TAG_subprogram ]
!1053 = metadata !{i32 786453, i32 0, metadata !"", i32 0, i32 0, i64 0, i64 0, i64 0, i32 0, null, metadata !1054, i32 0, i32 0} ; [ DW_TAG_subroutine_type ]
!1054 = metadata !{null, metadata !1014, metadata !221}
!1055 = metadata !{i32 786478, i32 0, metadata !998, metadata !"ap_int_base", metadata !"ap_int_base", metadata !"", metadata !149, i32 1525, metadata !1056, i1 false, i1 false, i32 0, i32 0, null, i32 384, i1 false, null, null, i32 0, metadata !119, i32 1525} ; [ DW_TAG_subprogram ]
!1056 = metadata !{i32 786453, i32 0, metadata !"", i32 0, i32 0, i64 0, i64 0, i64 0, i32 0, null, metadata !1057, i32 0, i32 0} ; [ DW_TAG_subroutine_type ]
!1057 = metadata !{null, metadata !1014, metadata !225}
!1058 = metadata !{i32 786478, i32 0, metadata !998, metadata !"ap_int_base", metadata !"ap_int_base", metadata !"", metadata !149, i32 1526, metadata !1059, i1 false, i1 false, i32 0, i32 0, null, i32 384, i1 false, null, null, i32 0, metadata !119, i32 1526} ; [ DW_TAG_subprogram ]
!1059 = metadata !{i32 786453, i32 0, metadata !"", i32 0, i32 0, i64 0, i64 0, i64 0, i32 0, null, metadata !1060, i32 0, i32 0} ; [ DW_TAG_subroutine_type ]
!1060 = metadata !{null, metadata !1014, metadata !230}
!1061 = metadata !{i32 786478, i32 0, metadata !998, metadata !"ap_int_base", metadata !"ap_int_base", metadata !"", metadata !149, i32 1527, metadata !1062, i1 false, i1 false, i32 0, i32 0, null, i32 384, i1 false, null, null, i32 0, metadata !119, i32 1527} ; [ DW_TAG_subprogram ]
!1062 = metadata !{i32 786453, i32 0, metadata !"", i32 0, i32 0, i64 0, i64 0, i64 0, i32 0, null, metadata !1063, i32 0, i32 0} ; [ DW_TAG_subroutine_type ]
!1063 = metadata !{null, metadata !1014, metadata !235}
!1064 = metadata !{i32 786478, i32 0, metadata !998, metadata !"ap_int_base", metadata !"ap_int_base", metadata !"", metadata !149, i32 1528, metadata !1065, i1 false, i1 false, i32 0, i32 0, null, i32 384, i1 false, null, null, i32 0, metadata !119, i32 1528} ; [ DW_TAG_subprogram ]
!1065 = metadata !{i32 786453, i32 0, metadata !"", i32 0, i32 0, i64 0, i64 0, i64 0, i32 0, null, metadata !1066, i32 0, i32 0} ; [ DW_TAG_subroutine_type ]
!1066 = metadata !{null, metadata !1014, metadata !240}
!1067 = metadata !{i32 786478, i32 0, metadata !998, metadata !"ap_int_base", metadata !"ap_int_base", metadata !"", metadata !149, i32 1529, metadata !1068, i1 false, i1 false, i32 0, i32 0, null, i32 384, i1 false, null, null, i32 0, metadata !119, i32 1529} ; [ DW_TAG_subprogram ]
!1068 = metadata !{i32 786453, i32 0, metadata !"", i32 0, i32 0, i64 0, i64 0, i64 0, i32 0, null, metadata !1069, i32 0, i32 0} ; [ DW_TAG_subroutine_type ]
!1069 = metadata !{null, metadata !1014, metadata !244}
!1070 = metadata !{i32 786478, i32 0, metadata !998, metadata !"ap_int_base", metadata !"ap_int_base", metadata !"", metadata !149, i32 1556, metadata !1071, i1 false, i1 false, i32 0, i32 0, null, i32 256, i1 false, null, null, i32 0, metadata !119, i32 1556} ; [ DW_TAG_subprogram ]
!1071 = metadata !{i32 786453, i32 0, metadata !"", i32 0, i32 0, i64 0, i64 0, i64 0, i32 0, null, metadata !1072, i32 0, i32 0} ; [ DW_TAG_subroutine_type ]
!1072 = metadata !{null, metadata !1014, metadata !248}
!1073 = metadata !{i32 786478, i32 0, metadata !998, metadata !"ap_int_base", metadata !"ap_int_base", metadata !"", metadata !149, i32 1563, metadata !1074, i1 false, i1 false, i32 0, i32 0, null, i32 256, i1 false, null, null, i32 0, metadata !119, i32 1563} ; [ DW_TAG_subprogram ]
!1074 = metadata !{i32 786453, i32 0, metadata !"", i32 0, i32 0, i64 0, i64 0, i64 0, i32 0, null, metadata !1075, i32 0, i32 0} ; [ DW_TAG_subroutine_type ]
!1075 = metadata !{null, metadata !1014, metadata !248, metadata !194}
!1076 = metadata !{i32 786478, i32 0, metadata !998, metadata !"read", metadata !"read", metadata !"_ZNV11ap_int_baseILi5ELb1ELb1EE4readEv", metadata !149, i32 1584, metadata !1077, i1 false, i1 false, i32 0, i32 0, null, i32 256, i1 false, null, null, i32 0, metadata !119, i32 1584} ; [ DW_TAG_subprogram ]
!1077 = metadata !{i32 786453, i32 0, metadata !"", i32 0, i32 0, i64 0, i64 0, i64 0, i32 0, null, metadata !1078, i32 0, i32 0} ; [ DW_TAG_subroutine_type ]
!1078 = metadata !{metadata !998, metadata !1079}
!1079 = metadata !{i32 786447, i32 0, metadata !"", i32 0, i32 0, i64 64, i64 64, i64 0, i32 64, metadata !1027} ; [ DW_TAG_pointer_type ]
!1080 = metadata !{i32 786478, i32 0, metadata !998, metadata !"write", metadata !"write", metadata !"_ZNV11ap_int_baseILi5ELb1ELb1EE5writeERKS0_", metadata !149, i32 1590, metadata !1081, i1 false, i1 false, i32 0, i32 0, null, i32 256, i1 false, null, null, i32 0, metadata !119, i32 1590} ; [ DW_TAG_subprogram ]
!1081 = metadata !{i32 786453, i32 0, metadata !"", i32 0, i32 0, i64 0, i64 0, i64 0, i32 0, null, metadata !1082, i32 0, i32 0} ; [ DW_TAG_subroutine_type ]
!1082 = metadata !{null, metadata !1079, metadata !1018}
!1083 = metadata !{i32 786478, i32 0, metadata !998, metadata !"operator=", metadata !"operator=", metadata !"_ZNV11ap_int_baseILi5ELb1ELb1EEaSERVKS0_", metadata !149, i32 1602, metadata !1084, i1 false, i1 false, i32 0, i32 0, null, i32 256, i1 false, null, null, i32 0, metadata !119, i32 1602} ; [ DW_TAG_subprogram ]
!1084 = metadata !{i32 786453, i32 0, metadata !"", i32 0, i32 0, i64 0, i64 0, i64 0, i32 0, null, metadata !1085, i32 0, i32 0} ; [ DW_TAG_subroutine_type ]
!1085 = metadata !{null, metadata !1079, metadata !1025}
!1086 = metadata !{i32 786478, i32 0, metadata !998, metadata !"operator=", metadata !"operator=", metadata !"_ZNV11ap_int_baseILi5ELb1ELb1EEaSERKS0_", metadata !149, i32 1611, metadata !1081, i1 false, i1 false, i32 0, i32 0, null, i32 256, i1 false, null, null, i32 0, metadata !119, i32 1611} ; [ DW_TAG_subprogram ]
!1087 = metadata !{i32 786478, i32 0, metadata !998, metadata !"operator=", metadata !"operator=", metadata !"_ZN11ap_int_baseILi5ELb1ELb1EEaSERVKS0_", metadata !149, i32 1634, metadata !1088, i1 false, i1 false, i32 0, i32 0, null, i32 256, i1 false, null, null, i32 0, metadata !119, i32 1634} ; [ DW_TAG_subprogram ]
!1088 = metadata !{i32 786453, i32 0, metadata !"", i32 0, i32 0, i64 0, i64 0, i64 0, i32 0, null, metadata !1089, i32 0, i32 0} ; [ DW_TAG_subroutine_type ]
!1089 = metadata !{metadata !1090, metadata !1014, metadata !1025}
!1090 = metadata !{i32 786448, null, null, null, i32 0, i64 0, i64 0, i64 0, i32 0, metadata !998} ; [ DW_TAG_reference_type ]
!1091 = metadata !{i32 786478, i32 0, metadata !998, metadata !"operator=", metadata !"operator=", metadata !"_ZN11ap_int_baseILi5ELb1ELb1EEaSERKS0_", metadata !149, i32 1639, metadata !1092, i1 false, i1 false, i32 0, i32 0, null, i32 256, i1 false, null, null, i32 0, metadata !119, i32 1639} ; [ DW_TAG_subprogram ]
!1092 = metadata !{i32 786453, i32 0, metadata !"", i32 0, i32 0, i64 0, i64 0, i64 0, i32 0, null, metadata !1093, i32 0, i32 0} ; [ DW_TAG_subroutine_type ]
!1093 = metadata !{metadata !1090, metadata !1014, metadata !1018}
!1094 = metadata !{i32 786478, i32 0, metadata !998, metadata !"operator=", metadata !"operator=", metadata !"_ZN11ap_int_baseILi5ELb1ELb1EEaSEPKc", metadata !149, i32 1643, metadata !1095, i1 false, i1 false, i32 0, i32 0, null, i32 256, i1 false, null, null, i32 0, metadata !119, i32 1643} ; [ DW_TAG_subprogram ]
!1095 = metadata !{i32 786453, i32 0, metadata !"", i32 0, i32 0, i64 0, i64 0, i64 0, i32 0, null, metadata !1096, i32 0, i32 0} ; [ DW_TAG_subroutine_type ]
!1096 = metadata !{metadata !1090, metadata !1014, metadata !248}
!1097 = metadata !{i32 786478, i32 0, metadata !998, metadata !"set", metadata !"set", metadata !"_ZN11ap_int_baseILi5ELb1ELb1EE3setEPKca", metadata !149, i32 1651, metadata !1098, i1 false, i1 false, i32 0, i32 0, null, i32 256, i1 false, null, null, i32 0, metadata !119, i32 1651} ; [ DW_TAG_subprogram ]
!1098 = metadata !{i32 786453, i32 0, metadata !"", i32 0, i32 0, i64 0, i64 0, i64 0, i32 0, null, metadata !1099, i32 0, i32 0} ; [ DW_TAG_subroutine_type ]
!1099 = metadata !{metadata !1090, metadata !1014, metadata !248, metadata !194}
!1100 = metadata !{i32 786478, i32 0, metadata !998, metadata !"operator=", metadata !"operator=", metadata !"_ZN11ap_int_baseILi5ELb1ELb1EEaSEa", metadata !149, i32 1665, metadata !1101, i1 false, i1 false, i32 0, i32 0, null, i32 256, i1 false, null, null, i32 0, metadata !119, i32 1665} ; [ DW_TAG_subprogram ]
!1101 = metadata !{i32 786453, i32 0, metadata !"", i32 0, i32 0, i64 0, i64 0, i64 0, i32 0, null, metadata !1102, i32 0, i32 0} ; [ DW_TAG_subroutine_type ]
!1102 = metadata !{metadata !1090, metadata !1014, metadata !194}
!1103 = metadata !{i32 786478, i32 0, metadata !998, metadata !"operator=", metadata !"operator=", metadata !"_ZN11ap_int_baseILi5ELb1ELb1EEaSEh", metadata !149, i32 1666, metadata !1104, i1 false, i1 false, i32 0, i32 0, null, i32 256, i1 false, null, null, i32 0, metadata !119, i32 1666} ; [ DW_TAG_subprogram ]
!1104 = metadata !{i32 786453, i32 0, metadata !"", i32 0, i32 0, i64 0, i64 0, i64 0, i32 0, null, metadata !1105, i32 0, i32 0} ; [ DW_TAG_subroutine_type ]
!1105 = metadata !{metadata !1090, metadata !1014, metadata !198}
!1106 = metadata !{i32 786478, i32 0, metadata !998, metadata !"operator=", metadata !"operator=", metadata !"_ZN11ap_int_baseILi5ELb1ELb1EEaSEs", metadata !149, i32 1667, metadata !1107, i1 false, i1 false, i32 0, i32 0, null, i32 256, i1 false, null, null, i32 0, metadata !119, i32 1667} ; [ DW_TAG_subprogram ]
!1107 = metadata !{i32 786453, i32 0, metadata !"", i32 0, i32 0, i64 0, i64 0, i64 0, i32 0, null, metadata !1108, i32 0, i32 0} ; [ DW_TAG_subroutine_type ]
!1108 = metadata !{metadata !1090, metadata !1014, metadata !202}
!1109 = metadata !{i32 786478, i32 0, metadata !998, metadata !"operator=", metadata !"operator=", metadata !"_ZN11ap_int_baseILi5ELb1ELb1EEaSEt", metadata !149, i32 1668, metadata !1110, i1 false, i1 false, i32 0, i32 0, null, i32 256, i1 false, null, null, i32 0, metadata !119, i32 1668} ; [ DW_TAG_subprogram ]
!1110 = metadata !{i32 786453, i32 0, metadata !"", i32 0, i32 0, i64 0, i64 0, i64 0, i32 0, null, metadata !1111, i32 0, i32 0} ; [ DW_TAG_subroutine_type ]
!1111 = metadata !{metadata !1090, metadata !1014, metadata !206}
!1112 = metadata !{i32 786478, i32 0, metadata !998, metadata !"operator=", metadata !"operator=", metadata !"_ZN11ap_int_baseILi5ELb1ELb1EEaSEi", metadata !149, i32 1669, metadata !1113, i1 false, i1 false, i32 0, i32 0, null, i32 256, i1 false, null, null, i32 0, metadata !119, i32 1669} ; [ DW_TAG_subprogram ]
!1113 = metadata !{i32 786453, i32 0, metadata !"", i32 0, i32 0, i64 0, i64 0, i64 0, i32 0, null, metadata !1114, i32 0, i32 0} ; [ DW_TAG_subroutine_type ]
!1114 = metadata !{metadata !1090, metadata !1014, metadata !118}
!1115 = metadata !{i32 786478, i32 0, metadata !998, metadata !"operator=", metadata !"operator=", metadata !"_ZN11ap_int_baseILi5ELb1ELb1EEaSEj", metadata !149, i32 1670, metadata !1116, i1 false, i1 false, i32 0, i32 0, null, i32 256, i1 false, null, null, i32 0, metadata !119, i32 1670} ; [ DW_TAG_subprogram ]
!1116 = metadata !{i32 786453, i32 0, metadata !"", i32 0, i32 0, i64 0, i64 0, i64 0, i32 0, null, metadata !1117, i32 0, i32 0} ; [ DW_TAG_subroutine_type ]
!1117 = metadata !{metadata !1090, metadata !1014, metadata !213}
!1118 = metadata !{i32 786478, i32 0, metadata !998, metadata !"operator=", metadata !"operator=", metadata !"_ZN11ap_int_baseILi5ELb1ELb1EEaSEx", metadata !149, i32 1671, metadata !1119, i1 false, i1 false, i32 0, i32 0, null, i32 256, i1 false, null, null, i32 0, metadata !119, i32 1671} ; [ DW_TAG_subprogram ]
!1119 = metadata !{i32 786453, i32 0, metadata !"", i32 0, i32 0, i64 0, i64 0, i64 0, i32 0, null, metadata !1120, i32 0, i32 0} ; [ DW_TAG_subroutine_type ]
!1120 = metadata !{metadata !1090, metadata !1014, metadata !225}
!1121 = metadata !{i32 786478, i32 0, metadata !998, metadata !"operator=", metadata !"operator=", metadata !"_ZN11ap_int_baseILi5ELb1ELb1EEaSEy", metadata !149, i32 1672, metadata !1122, i1 false, i1 false, i32 0, i32 0, null, i32 256, i1 false, null, null, i32 0, metadata !119, i32 1672} ; [ DW_TAG_subprogram ]
!1122 = metadata !{i32 786453, i32 0, metadata !"", i32 0, i32 0, i64 0, i64 0, i64 0, i32 0, null, metadata !1123, i32 0, i32 0} ; [ DW_TAG_subroutine_type ]
!1123 = metadata !{metadata !1090, metadata !1014, metadata !230}
!1124 = metadata !{i32 786478, i32 0, metadata !998, metadata !"operator signed char", metadata !"operator signed char", metadata !"_ZNK11ap_int_baseILi5ELb1ELb1EEcvaEv", metadata !149, i32 1710, metadata !1125, i1 false, i1 false, i32 0, i32 0, null, i32 256, i1 false, null, null, i32 0, metadata !119, i32 1710} ; [ DW_TAG_subprogram ]
!1125 = metadata !{i32 786453, i32 0, metadata !"", i32 0, i32 0, i64 0, i64 0, i64 0, i32 0, null, metadata !1126, i32 0, i32 0} ; [ DW_TAG_subroutine_type ]
!1126 = metadata !{metadata !1127, metadata !1128}
!1127 = metadata !{i32 786454, metadata !998, metadata !"RetType", metadata !149, i32 1458, i64 0, i64 0, i64 0, i32 0, metadata !917} ; [ DW_TAG_typedef ]
!1128 = metadata !{i32 786447, i32 0, metadata !"", i32 0, i32 0, i64 64, i64 64, i64 0, i32 64, metadata !1019} ; [ DW_TAG_pointer_type ]
!1129 = metadata !{i32 786478, i32 0, metadata !998, metadata !"to_bool", metadata !"to_bool", metadata !"_ZNK11ap_int_baseILi5ELb1ELb1EE7to_boolEv", metadata !149, i32 1716, metadata !1130, i1 false, i1 false, i32 0, i32 0, null, i32 256, i1 false, null, null, i32 0, metadata !119, i32 1716} ; [ DW_TAG_subprogram ]
!1130 = metadata !{i32 786453, i32 0, metadata !"", i32 0, i32 0, i64 0, i64 0, i64 0, i32 0, null, metadata !1131, i32 0, i32 0} ; [ DW_TAG_subroutine_type ]
!1131 = metadata !{metadata !169, metadata !1128}
!1132 = metadata !{i32 786478, i32 0, metadata !998, metadata !"to_uchar", metadata !"to_uchar", metadata !"_ZNK11ap_int_baseILi5ELb1ELb1EE8to_ucharEv", metadata !149, i32 1717, metadata !1133, i1 false, i1 false, i32 0, i32 0, null, i32 256, i1 false, null, null, i32 0, metadata !119, i32 1717} ; [ DW_TAG_subprogram ]
!1133 = metadata !{i32 786453, i32 0, metadata !"", i32 0, i32 0, i64 0, i64 0, i64 0, i32 0, null, metadata !1134, i32 0, i32 0} ; [ DW_TAG_subroutine_type ]
!1134 = metadata !{metadata !198, metadata !1128}
